(lp0
S'3VepHoN3xdE-130.0-140.0.wav'
p1
aS'8nxCzPEws5Y-0.0-10.0.wav'
p2
aS'ahviJQWw5P8-20.0-30.0.wav'
p3
aS'iJfQ2IX_uY4-490.0-500.0.wav'
p4
aS'jDS6YpTJ-pE-200.0-210.0.wav'
p5
aS'kkXashTkrMg-410.0-420.0.wav'
p6
aS'T53WFfJfNp4-110.0-120.0.wav'
p7
aS'xcaYzTQhxdA-250.0-260.0.wav'
p8
aS'xcbd6hQ-syw-510.0-520.0.wav'
p9
aS'fR6bL6d4VTo-200.0-210.0.wav'
p10
aS'qb43-hn_-_c-70.0-80.0.wav'
p11
aS'Rpqg2NiYwKw-130.0-140.0.wav'
p12
aS'2CsiKDaVcao-310.0-320.0.wav'
p13
aS'7EUF_K9MI50-80.0-90.0.wav'
p14
aS'AQtXU42uTtM-520.0-530.0.wav'
p15
aS'cDPzm9x98AA-0.0-10.0.wav'
p16
aS'doMBDq1H98I-540.0-550.0.wav'
p17
aS'I8ZNx_i9Uo0-110.0-120.0.wav'
p18
aS'03bVMd3Sjd8-90.0-100.0.wav'
p19
aS'HPIoTz_Qg2s-20.0-30.0.wav'
p20
aS'pnKC7r_73aA-30.0-40.0.wav'
p21
aS'V0T1sQWjV-M-0.0-10.0.wav'
p22
aS'VzUPL1bzu18-80.0-90.0.wav'
p23
aS'3ZMHDk4Y7gg-100.0-110.0.wav'
p24
aS'6TLdOFfBFXc-50.0-60.0.wav'
p25
aS'eNflJVJSdos-30.0-40.0.wav'
p26
aS'jLLNYfbwtns-17.0-27.0.wav'
p27
aS'QvlrAXe0NJ0-520.0-530.0.wav'
p28
aS'TPGDuh_erqQ-230.0-240.0.wav'
p29
aS'FkCRn5wSu-A-270.0-280.0.wav'
p30
aS'li8jvappRfM-80.0-90.0.wav'
p31
aS'p_5AQ7YKa6o-0.0-10.0.wav'
p32
aS'mZfIT0aJPkY-520.0-530.0.wav'
p33
aS'02s9tebdvwc-470.0-480.0.wav'
p34
aS'6beCtyPdMiU-440.0-450.0.wav'
p35
aS'Kx-gepVkSyI-130.0-140.0.wav'
p36
aS'KgDGlhMhJAc-30.0-40.0.wav'
p37
aS'lwVoduYg30w-0.0-10.0.wav'
p38
aS'QpREP0kHWzI-10.0-20.0.wav'
p39
aS'SWPmjjE10jo-30.0-40.0.wav'
p40
aS'swpQojgQJJU-300.0-310.0.wav'
p41
aS'swQ2EKf-cr8-360.0-370.0.wav'
p42
aS'-DswWsDtNhI-80.0-90.0.wav'
p43
aS'5nmCPWVUyt0-0.0-10.0.wav'
p44
aS'k5MuStzWbAY-90.0-100.0.wav'
p45
aS'Zm0ZZqHMg1U-0.0-10.0.wav'
p46
aS'jhFqn1soTqw-180.0-190.0.wav'
p47
aS'vQ4-4gA403c-270.0-280.0.wav'
p48
aS'YfmlhnX0xa8-40.0-50.0.wav'
p49
aS'5Dw1f-5tQYw-20.0-30.0.wav'
p50
aS'9Wtg5LmdVBs-0.0-10.0.wav'
p51
aS'ERVDQGBtgzA-20.0-30.0.wav'
p52
aS'GNZvR9vS78c-340.0-350.0.wav'
p53
aS'IZF6Y3eMfDc-50.0-60.0.wav'
p54
aS'sAiqPJivPGw-25.0-35.0.wav'
p55
aS'wo-InBrdpLs-370.0-380.0.wav'
p56
aS'yMUUNMnkmNk-30.0-40.0.wav'
p57
aS'Ymwp3lGHdgs-260.0-270.0.wav'
p58
aS'e1EEd2B5P_k-0.0-10.0.wav'
p59
aS'E92MLe14Cm0-30.0-40.0.wav'
p60
aS'LRYCZneC8T4-10.0-20.0.wav'
p61
aS'lmbFNHeHlIo-16.0-26.0.wav'
p62
aS'hBghOWKNeyU-310.0-320.0.wav'
p63
aS'hbILERb7MGU-30.0-40.0.wav'
p64
aS'JzLf-vT_KDQ-210.0-220.0.wav'
p65
aS'PL03ksrRzU4-330.0-340.0.wav'
p66
aS'SzWb4ViOX0M-30.0-40.0.wav'
p67
aS'UYNPYl8y-UU-30.0-40.0.wav'
p68
aS'YAC6VU9Hrvc-50.0-60.0.wav'
p69
aS'_Vn3HqqAonw-120.0-130.0.wav'
p70
aS'B3pNwmtg078-10.0-20.0.wav'
p71
aS'BdFJZKJMerA-0.0-10.0.wav'
p72
aS'jfYmiTOdEtg-80.0-90.0.wav'
p73
aS'JfzgndNlRKk-170.0-180.0.wav'
p74
aS'Vf7mZ6ECKQs-0.0-10.0.wav'
p75
aS'tL1hh8pIIjA-70.0-80.0.wav'
p76
aS'0LzJBc-1kg8-40.0-50.0.wav'
p77
aS'BoBvqAIOL2Y-40.0-50.0.wav'
p78
aS'bof4Iz6pJmw-20.0-30.0.wav'
p79
aS'dVNlp6XcAN0-60.0-70.0.wav'
p80
aS'uk9MO6w7GO4-10.0-20.0.wav'
p81
aS'53aNh-WN6IY-30.0-40.0.wav'
p82
aS'K9ItD_R6I08-320.0-330.0.wav'
p83
aS'1kfVcaBeQSo-0.0-9.0.wav'
p84
aS'59M6QxdJg3g-310.0-320.0.wav'
p85
aS'6ZlDVj4LEU0-0.0-10.0.wav'
p86
aS'Deu7_XTtfEg-470.0-480.0.wav'
p87
aS'iK_gV-SFay8-30.0-40.0.wav'
p88
aS'ZygON8lAEwo-250.0-260.0.wav'
p89
aS'ZyIffeqLDFQ-15.0-25.0.wav'
p90
aS'GZMCaALKTv0-510.0-520.0.wav'
p91
aS'gprIPr3BSoo-450.0-460.0.wav'
p92
aS'gpsj5IA_60g-120.0-130.0.wav'
p93
aS'lKn6ScfcU5I-410.0-420.0.wav'
p94
aS'nwCeSq7uB6M-130.0-140.0.wav'
p95
aS'tQUNAduMIdI-40.0-50.0.wav'
p96
aS'6DT38dp81L4-20.0-30.0.wav'
p97
aS'BGlgr2fmZOk-90.0-100.0.wav'
p98
aS'mrDmAAOFVEI-0.0-10.0.wav'
p99
aS'PsjzrTpaF38-30.0-40.0.wav'
p100
aS'zr776nx0Nbg-180.0-190.0.wav'
p101
aS'fxYPVzoRZTU-0.0-10.0.wav'
p102
aS'M_ctLlHjxjs-10.0-20.0.wav'
p103
aS'Uo8ubYuc9wg-0.0-10.0.wav'
p104
aS'LNNvones1ow-0.0-10.0.wav'
p105
aS'5GmlUDUetsI-230.0-240.0.wav'
p106
aS'g7bwpQWakvM-380.0-390.0.wav'
p107
aS'Kq9PcrdSqeA-0.0-10.0.wav'
p108
aS'acXLus8KS30-0.0-10.0.wav'
p109
aS'eHJ2-DTgu1U-40.0-50.0.wav'
p110
aS'kvriykxC0WI-290.0-300.0.wav'
p111
aS'QgJnkNm8EaM-30.0-40.0.wav'
p112
aS'HO0oLf8IVPM-0.0-10.0.wav'
p113
aS'TJ3kyRTqkLA-290.0-300.0.wav'
p114
aS'wUGBQWN5Kio-16.0-26.0.wav'
p115
aS'wujHn_-St9M-40.0-50.0.wav'
p116
aS'Z9gmViJXrUw-30.0-40.0.wav'
p117
aS'Z9iK1u23LZs-130.0-140.0.wav'
p118
aS'05-_4fN3Cc8-330.0-340.0.wav'
p119
aS'0a5Zwn5EeiI-70.0-80.0.wav'
p120
aS'atwwg7HzTBU-90.0-100.0.wav'
p121
aS'jPwHtnNBRow-580.0-590.0.wav'
p122
aS'JpZ4xF_piQY-170.0-180.0.wav'
p123
aS'vb0zwcHyI_8-0.0-10.0.wav'
p124
aS'b5tbSRHtTh4-0.0-10.0.wav'
p125
aS'BY0Lz3kwbxI-180.0-190.0.wav'
p126
aS'DayNhPyRB2o-0.0-10.0.wav'
p127
aS'MLc9gEzNnI4-160.0-170.0.wav'
p128
aS'Twu7RWxVyQ4-90.0-100.0.wav'
p129
aS'uL8YkJ-_mWY-480.0-490.0.wav'
p130
aS'teqPtfiASCQ-310.0-320.0.wav'
p131
aS'1U4CF5v-cUs-460.0-470.0.wav'
p132
aS'50uDnLxZlKQ-80.0-90.0.wav'
p133
aS'fscrvUQ6iQc-10.0-20.0.wav'
p134
aS'rwJp2Eogrgc-290.0-300.0.wav'
p135
aS'RXBdL0Ma8E4-180.0-190.0.wav'
p136
aS'lCnR_xSp0D0-340.0-350.0.wav'
p137
aS'Qe4xRJ0TOjM-10.0-20.0.wav'
p138
aS'xdgr5Gn4VVI-20.0-30.0.wav'
p139
aS'GBvc6TZjh3Y-480.0-490.0.wav'
p140
aS'gBx5OTHoIGA-0.0-10.0.wav'
p141
aS'1JJXeAScQM4-80.0-90.0.wav'
p142
aS'hRPMwYTSGrs-0.0-10.0.wav'
p143
aS'0kZGluQsWgg-190.0-200.0.wav'
p144
aS'eor5xReFqqw-30.0-40.0.wav'
p145
aS'tueIv5RPXwM-30.0-40.0.wav'
p146
aS'tUKCX7xKooE-30.0-40.0.wav'
p147
aS'dPtJmrWgv88-150.0-160.0.wav'
p148
aS'oVE0zLUjbfo-120.0-130.0.wav'
p149
aS'_F7PNCQzQ7o-360.0-370.0.wav'
p150
aS'pFsPjdLIX9M-570.0-580.0.wav'
p151
aS'Y8gvWc3FeEU-350.0-360.0.wav'
p152
aS'1l6DRz1KrmQ-190.0-200.0.wav'
p153
aS'uxY-S9e7Wq0-350.0-360.0.wav'
p154
aS'd1w7LFBezuI-320.0-330.0.wav'
p155
aS'4VgQkIC7_eA-530.0-540.0.wav'
p156
aS'JKbsNpjvYDw-400.0-410.0.wav'
p157
aS'w443gkai5vU-30.0-40.0.wav'
p158
aS'wov9boVTb0Y-0.0-10.0.wav'
p159
aS'yUt51H__ibs-200.0-210.0.wav'
p160
aS'D72kc4eBoc0-0.0-10.0.wav'
p161
aS'k7hDIRmmUxI-340.0-350.0.wav'
p162
aS'sMIG8mfOTGw-70.0-80.0.wav'
p163
aS'SrFnIAcYswU-30.0-40.0.wav'
p164
aS'u0pUNLqzNm4-60.0-70.0.wav'
p165
aS'zPsXRnygWYs-30.0-40.0.wav'
p166
aS'2BvpxahpLa8-30.0-40.0.wav'
p167
aS'g-qRlO9YHpc-20.0-30.0.wav'
p168
aS'HE1WJ4ZQ6bo-180.0-190.0.wav'
p169
aS'kWIFVDvkXYg-0.0-10.0.wav'
p170
aS'KX8Y9A24pNE-30.0-40.0.wav'
p171
aS'oYcgAo-urTs-90.0-100.0.wav'
p172
aS'PdR4mM9Ezyg-40.0-50.0.wav'
p173
aS'tW1bWwJVQBs-30.0-40.0.wav'
p174
aS'vqV1LO6sNk0-110.0-120.0.wav'
p175
aS'Y0zZ5nq0LYQ-50.0-60.0.wav'
p176
aS'ZJe64VrbUWY-480.0-490.0.wav'
p177
aS'_792R8mxSv0-460.0-470.0.wav'
p178
aS'G9aPr7ARj0M-410.0-420.0.wav'
p179
aS'WfARUMDC8PU-30.0-40.0.wav'
p180
aS'XOtZJe2BZGw-230.0-240.0.wav'
p181
aS'zRzsUhpdhsY-0.0-10.0.wav'
p182
aS'7gDG3jhwYc4-210.0-220.0.wav'
p183
aS'9uohX1bE3KM-80.0-90.0.wav'
p184
aS'9_XPE_G8Lwg-180.0-190.0.wav'
p185
aS'GxGD0eCOfTU-20.0-30.0.wav'
p186
aS'kTO7xQ2ey7I-20.0-30.0.wav'
p187
aS'YwkYgPsSy7E-470.0-480.0.wav'
p188
aS'DFhUHVRCu_U-170.0-180.0.wav'
p189
aS'EYgkL-gepBA-590.0-600.0.wav'
p190
aS'fKJCmcOSeN0-180.0-190.0.wav'
p191
aS'lPk5AmPLjZw-120.0-130.0.wav'
p192
aS'O1_v8uoUBFY-50.0-60.0.wav'
p193
aS'OeJHTv6Kh6Y-30.0-40.0.wav'
p194
aS'wQlo9DoaAVc-30.0-40.0.wav'
p195
aS'S7D8v-sPsas-10.0-20.0.wav'
p196
aS'Rl-LhUwhv7U-20.0-30.0.wav'
p197
aS'rL0fogq60Xg-190.0-200.0.wav'
p198
aS'Z7LfFH8CFqI-300.0-310.0.wav'
p199
aS'fl-bt9Q1UFU-240.0-250.0.wav'
p200
aS'IZvvrdEjlRQ-240.0-250.0.wav'
p201
aS'L_2aZ6Y_vgE-430.0-440.0.wav'
p202
aS'Ng85JRrPq1g-130.0-140.0.wav'
p203
aS'soh5JjrE1i4-20.0-30.0.wav'
p204
aS'UH7lnwOZc6I-130.0-140.0.wav'
p205
aS'3h8ZpwIWPHs-290.0-300.0.wav'
p206
aS'6Xas7jAJMzc-30.0-40.0.wav'
p207
aS'BBYaVYCmAx0-130.0-140.0.wav'
p208
aS'ckL4Xt2du6w-0.0-10.0.wav'
p209
aS'sjtEmuU4DEg-280.0-290.0.wav'
p210
aS'irlkY41X21Q-30.0-40.0.wav'
p211
aS'osu68hLaX8I-70.0-80.0.wav'
p212
aS'oSvQuy_u9QQ-60.0-70.0.wav'
p213
aS'01PeZnXbx-c-150.0-160.0.wav'
p214
aS'7WZTqAjj61g-30.0-40.0.wav'
p215
aS'qtv83eyhoEg-30.0-40.0.wav'
p216
aS'V70w3cxDJIM-80.0-90.0.wav'
p217
aS'LbzO4SN5XPw-300.0-310.0.wav'
p218
aS'EPG4E7WiTpY-0.0-10.0.wav'
p219
aS'jWv276E_wzg-0.0-10.0.wav'
p220
aS'JBzF2p1cogQ-100.0-110.0.wav'
p221
aS'8e_BxwLHddI-150.0-160.0.wav'
p222
aS'ETm2boLzuEo-450.0-460.0.wav'
p223
aS'j5AmJyr4wE8-530.0-540.0.wav'
p224
aS'YF7qKHaKPyw-20.0-30.0.wav'
p225
aS'Yp3hCoEy7BE-30.0-40.0.wav'
p226
aS'rA2dDMY5aPQ-260.0-270.0.wav'
p227
aS'IGxcOJ2tKmc-10.0-20.0.wav'
p228
aS'j_Mpt9ogw4Y-90.0-100.0.wav'
p229
aS'UrCReOYm-PE-0.0-10.0.wav'
p230
aS'vFVGNZTEGkU-470.0-480.0.wav'
p231
aS'y5dY_yPdRGc-0.0-10.0.wav'
p232
aS'eACZFrLRH0c-30.0-40.0.wav'
p233
aS'L3XQBkqqE38-190.0-200.0.wav'
p234
aS'q7ML7BhGk2s-0.0-10.0.wav'
p235
aS'QqqlKHwpskQ-160.0-170.0.wav'
p236
aS'vACYFiQE_78-30.0-40.0.wav'
p237
aS'23ke2DPz3hc-280.0-290.0.wav'
p238
aS'8PrEZfDnFlM-0.0-10.0.wav'
p239
aS'ApB-pSk-ZyQ-400.0-410.0.wav'
p240
aS'j2XATdXf-p4-0.0-10.0.wav'
p241
aS'PUDj3FU09do-30.0-40.0.wav'
p242
aS'w2LoDJW7TvI-0.0-10.0.wav'
p243
aS'wbUrVWt903o-90.0-100.0.wav'
p244
aS'5cYoHmIk7g8-0.0-10.0.wav'
p245
aS'fns4qse1R0k-3.0-13.0.wav'
p246
aS'kCeCsJhtq8I-440.0-450.0.wav'
p247
aS'XcvK_8SnIAk-10.0-20.0.wav'
p248
aS'YY5dZ9PDp0c-0.0-10.0.wav'
p249
aS'AZZU2SwdV_E-360.0-370.0.wav'
p250
aS'O7sCw7e0Hww-350.0-360.0.wav'
p251
aS'wJgYfz2xpf4-550.0-560.0.wav'
p252
aS'8Bz-JXH_y9Y-70.0-80.0.wav'
p253
aS'9dmfIyyIWn0-30.0-40.0.wav'
p254
aS'c-vJVVTMKlM-70.0-80.0.wav'
p255
aS'pehxr05Pm3w-0.0-10.0.wav'
p256
aS'E4IYqm-AUcA-80.0-90.0.wav'
p257
aS'HbY8CYd4wsE-0.0-10.0.wav'
p258
aS'hSEcSC7l3NQ-350.0-360.0.wav'
p259
aS'IV5-UaTZxLM-340.0-350.0.wav'
p260
aS'3bzLHM_rsu4-30.0-40.0.wav'
p261
aS'3LqtwY8ZMnw-390.0-400.0.wav'
p262
aS'rScxUOYpjYA-180.0-190.0.wav'
p263
aS'CXtk06d27Jg-0.0-10.0.wav'
p264
aS'n7p0FI3eFtI-280.0-290.0.wav'
p265
aS'z3aQUlQ2dTc-0.0-10.0.wav'
p266
aS'CWMLZSv72HI-220.0-230.0.wav'
p267
aS'WzWttCgcmc4-30.0-40.0.wav'
p268
aS'TJmIbKo-4Dc-30.0-40.0.wav'
p269
aS'0EqGcNfnnlw-60.0-70.0.wav'
p270
aS'qNPRy90CVas-400.0-410.0.wav'
p271
aS'H9hiTF7ZoaM-590.0-600.0.wav'
p272
aS'vjoGaKAt0xs-520.0-530.0.wav'
p273
aS'SH3bwikUNlY-430.0-440.0.wav'
p274
aS'T9uoHlanVl4-170.0-180.0.wav'
p275
aS'u-QHQcJU4dI-0.0-10.0.wav'
p276
aS'6bdlaVW1yVM-240.0-250.0.wav'
p277
aS'wOHXnYB_CyU-0.0-10.0.wav'
p278
aS'uBcsliDD6j4-0.0-10.0.wav'
p279
aS'XAZ5JM0GeRg-20.0-30.0.wav'
p280
aS'-Zb0rFhE3yo-160.0-170.0.wav'
p281
aS'0MFnZp9J0G0-0.0-10.0.wav'
p282
aS'19JVNH6DyPo-0.0-10.0.wav'
p283
aS'1mBRr0QTuPY-140.0-150.0.wav'
p284
aS'3gnhZYuRoNU-0.0-10.0.wav'
p285
aS'buQVeB7x7uI-30.0-40.0.wav'
p286
aS'jmNmA2MPFHY-0.0-10.0.wav'
p287
aS'uCYq9JU9MTY-0.0-10.0.wav'
p288
aS'WEVifBsFqs0-270.0-280.0.wav'
p289
aS'k8LCD3nIbc0-110.0-120.0.wav'
p290
aS'kqn5jzdM6Og-260.0-270.0.wav'
p291
aS'QcO8PkoE4Hk-200.0-210.0.wav'
p292
aS'VcBqbG-uFqw-80.0-90.0.wav'
p293
aS'CfaHcSQ80ZQ-0.0-10.0.wav'
p294
aS'qkQdw9-QQbk-300.0-310.0.wav'
p295
aS'qKT30HlNnKQ-370.0-380.0.wav'
p296
aS'sLif4jKE5mc-510.0-520.0.wav'
p297
aS'd0NMgW3n1HU-230.0-240.0.wav'
p298
aS'D0v8pdpJKmI-0.0-10.0.wav'
p299
aS'j6uMEGcrW4k-110.0-120.0.wav'
p300
aS'1H6l7SJv63s-0.0-10.0.wav'
p301
aS'37xl2nT_Uas-0.0-10.0.wav'
p302
aS'8hZTGJ6LiKc-50.0-60.0.wav'
p303
aS'UTvHB1n9_4w-0.0-10.0.wav'
p304
aS'd55IWHuAM_c-470.0-480.0.wav'
p305
aS'HdIylIX_-9w-220.0-230.0.wav'
p306
aS'yzcZWPn6xsA-300.0-310.0.wav'
p307
aS'04KXXe_j0O4-450.0-460.0.wav'
p308
aS'2v7kapOCf5o-60.0-70.0.wav'
p309
aS'5BPQ8g31FaE-510.0-520.0.wav'
p310
aS'A9hrILiG0YA-130.0-140.0.wav'
p311
aS'ThI0fqbpVmA-370.0-380.0.wav'
p312
aS'Ab8E9mCIPI0-120.0-130.0.wav'
p313
aS'dih3AUNrUhE-30.0-40.0.wav'
p314
aS'ju59tXhM7oQ-0.0-10.0.wav'
p315
aS'6TZyv3N7kgQ-17.0-27.0.wav'
p316
aS'9-ynDinqRDg-30.0-40.0.wav'
p317
aS'd8OG0QN_KTQ-10.0-20.0.wav'
p318
aS'Jg8TFCaBxZs-0.0-10.0.wav'
p319
aS'l26bVrCW5h0-60.0-70.0.wav'
p320
aS'rGf-3HOu2HI-0.0-10.0.wav'
p321
aS'4ClSOOEJtKU-460.0-470.0.wav'
p322
aS'6f3aAh8ecEQ-400.0-410.0.wav'
p323
aS'7QQmvgFoBFc-30.0-40.0.wav'
p324
aS'VSmPMqw3Bhg-30.0-40.0.wav'
p325
aS'w0fK1imguZA-110.0-120.0.wav'
p326
aS'LgY_gotcGa0-280.0-290.0.wav'
p327
aS'b9Dz2K6AxAo-170.0-180.0.wav'
p328
aS'IBXW-7M63TM-10.0-20.0.wav'
p329
aS'fKmQ69M0ZIo-30.0-40.0.wav'
p330
aS'IeBcL5YO33Q-430.0-440.0.wav'
p331
aS's3KFtgmCBZw-10.0-20.0.wav'
p332
aS'-njw9svjfEU-30.0-40.0.wav'
p333
aS'g4v91GM918E-0.0-10.0.wav'
p334
aS'GlBjJ5AHIwU-200.0-210.0.wav'
p335
aS'2PamvnXe_Hg-400.0-410.0.wav'
p336
aS'RgYgwj5nuF4-240.0-250.0.wav'
p337
aS'3fyORc_dwag-180.0-190.0.wav'
p338
aS'rhTvEy13ZgE-20.0-30.0.wav'
p339
aS'xXxriVeRbeQ-0.0-9.0.wav'
p340
aS'EGauC6O1BIc-70.0-80.0.wav'
p341
aS'A8iRlbqnKsU-20.0-30.0.wav'
p342
aS'_2Ji-Z_D2fM-0.0-10.0.wav'
p343
aS'nJLK9GBpnYk-190.0-200.0.wav'
p344
aS'yEF2QQlzCC0-160.0-170.0.wav'
p345
aS'4WzMwC4jrew-30.0-40.0.wav'
p346
aS'V1P4IHTnX4o-180.0-190.0.wav'
p347
aS'e5R_lf7Tnmw-40.0-50.0.wav'
p348
aS'yiw-mZIIwJ4-410.0-420.0.wav'
p349
aS'9It2PAzbdrs-40.0-50.0.wav'
p350
aS'dC7pcueYWCA-270.0-280.0.wav'
p351
aS'j-ZuFi0n8oU-60.0-70.0.wav'
p352
aS'yr-nzKJfCKw-50.0-60.0.wav'
p353
aS'tiTg4Rx5_Y4-0.0-10.0.wav'
p354
aS'ddwluL1JtEQ-0.0-10.0.wav'
p355
aS'gcA4SuFxin0-30.0-40.0.wav'
p356
aS'JqB-H76_a5E-370.0-380.0.wav'
p357
aS'KhpYFgotjCA-190.0-200.0.wav'
p358
aS'pe2KVlyj_Gg-40.0-50.0.wav'
p359
aS'r4O2cNNGXUM-60.0-70.0.wav'
p360
aS'ylP5SEAbCAA-0.0-10.0.wav'
p361
aS'LBJMYTLSZ4E-140.0-150.0.wav'
p362
aS'5XIz39Je1hI-40.0-50.0.wav'
p363
aS'At8vgmeX1DE-260.0-270.0.wav'
p364
aS'cnR4w7fWcsc-490.0-500.0.wav'
p365
aS'ebDxga-D4FU-0.0-10.0.wav'
p366
aS'eBG5U8R8nFY-50.0-60.0.wav'
p367
aS'HrynRPYHs-0-10.0-20.0.wav'
p368
aS'rcz3KnReZh4-0.0-10.0.wav'
p369
aS'wCAQGdc0neE-190.0-200.0.wav'
p370
aS'zTcZHcMC59c-30.0-40.0.wav'
p371
aS'lhuBEs8eHE0-140.0-150.0.wav'
p372
aS'37aykMJqSh0-30.0-40.0.wav'
p373
aS'jNWshZG9Xpc-60.0-70.0.wav'
p374
aS'UA4Sgoq4g1E-40.0-50.0.wav'
p375
aS'UnB8vfn5CbM-50.0-60.0.wav'
p376
aS'UNd0USMJKEo-0.0-10.0.wav'
p377
aS'Yqb2lON97fE-30.0-40.0.wav'
p378
aS'ywIILBB6weo-50.0-60.0.wav'
p379
aS'3juHoqnOr2Y-80.0-90.0.wav'
p380
aS'aS9-uwh86Ls-30.0-40.0.wav'
p381
aS'fAFnzBbxDKY-100.0-110.0.wav'
p382
aS'PspZVJffD9Q-120.0-130.0.wav'
p383
aS'BYyebdO-f88-190.0-200.0.wav'
p384
aS'JfPB07qiSXc-330.0-340.0.wav'
p385
aS'kc0i0IIU0XY-320.0-330.0.wav'
p386
aS'Lcfb_UTbNrI-310.0-320.0.wav'
p387
aS'lCIRJV0pYKQ-30.0-40.0.wav'
p388
aS'MJjNnYip8Es-260.0-270.0.wav'
p389
aS'UJWP68eD-uI-120.0-130.0.wav'
p390
aS'uJwRVGRSzng-40.0-50.0.wav'
p391
aS'5NAEISOKg60-30.0-40.0.wav'
p392
aS'QsaGrrZ-Xb8-30.0-40.0.wav'
p393
aS'StJ0nnpWoFc-24.0-34.0.wav'
p394
aS'VfMJvVJLHIk-100.0-110.0.wav'
p395
aS'FhLvfOU3K1A-190.0-200.0.wav'
p396
aS'ohBTCkMggLA-10.0-20.0.wav'
p397
aS'OHd2z6nrCxQ-530.0-540.0.wav'
p398
aS'R3gE1KXxVl4-30.0-40.0.wav'
p399
aS'R3hIYbVf7CU-70.0-80.0.wav'
p400
aS'yDkG7_qqSh4-30.0-40.0.wav'
p401
aS'1sC9NhbH-gw-70.0-80.0.wav'
p402
aS'4xP-ihVhn5s-10.0-20.0.wav'
p403
aS'4XPGUebiO3U-440.0-450.0.wav'
p404
aS'5_bVA-H7Tyc-210.0-220.0.wav'
p405
aS'8ODpZ1SqETM-40.0-50.0.wav'
p406
aS'9gkYcj2C8Zg-500.0-510.0.wav'
p407
aS'fN4nOBxUCfQ-0.0-10.0.wav'
p408
aS'Hy2DH-3W2hA-170.0-180.0.wav'
p409
aS'Kln23TSjJk4-220.0-230.0.wav'
p410
aS'oyLDjE3j6wQ-0.0-10.0.wav'
p411
aS'qv61JUBZ7Uk-70.0-80.0.wav'
p412
aS'rRXuxWwcX14-370.0-380.0.wav'
p413
aS'cMoR4f71TjQ-30.0-40.0.wav'
p414
aS'CmPnhHIdrjE-310.0-320.0.wav'
p415
aS'nL_crMGjFMc-30.0-40.0.wav'
p416
aS'Q1wHzs7Lbo4-310.0-320.0.wav'
p417
aS'So5Xt436F8M-0.0-10.0.wav'
p418
aS'VD35qRgyElw-70.0-80.0.wav'
p419
aS'XjMX7-PRQm4-160.0-170.0.wav'
p420
aS'xsvcYSKcI0Q-30.0-40.0.wav'
p421
aS'jZxM10XQhfU-40.0-50.0.wav'
p422
aS'jzz5p6yg-7U-190.0-200.0.wav'
p423
aS'Zy1kVPv82gU-0.0-10.0.wav'
p424
aS'lpqTlHKGh5E-0.0-10.0.wav'
p425
aS'6HA9-CMEM98-290.0-300.0.wav'
p426
aS'7Mzwsb_8nsM-200.0-210.0.wav'
p427
aS'Hl12gcjUm5U-20.0-30.0.wav'
p428
aS'Ift4UFuVdc8-560.0-570.0.wav'
p429
aS'qa3n5pO4Jog-230.0-240.0.wav'
p430
aS'bNm5jAEnbIw-0.0-10.0.wav'
p431
aS'dDi9lCw55Jg-100.0-110.0.wav'
p432
aS'mlYTKckhlCI-130.0-140.0.wav'
p433
aS'okzJO8PJ4XI-320.0-330.0.wav'
p434
aS'qroK1DmCPTs-0.0-10.0.wav'
p435
aS'74z50XB48_4-160.0-170.0.wav'
p436
aS'a-nDlOcz4yc-30.0-40.0.wav'
p437
aS'QY4TK2dwPb4-90.0-100.0.wav'
p438
aS'rB41l9BgFcs-0.0-10.0.wav'
p439
aS'_VDeUMBYd3M-10.0-20.0.wav'
p440
aS'bKv-n7AydU8-570.0-580.0.wav'
p441
aS'-FzC6wlML8I-60.0-70.0.wav'
p442
aS'P8DCBJiw15Y-0.0-10.0.wav'
p443
aS'w_ZhSPdu3KM-10.0-20.0.wav'
p444
aS'vky2lgfUgSc-500.0-510.0.wav'
p445
aS'2ae2iSa254s-0.0-10.0.wav'
p446
aS'fvQkIMxPVA4-60.0-70.0.wav'
p447
aS'fvQLT11Ki2M-10.0-20.0.wav'
p448
aS'ixXx_FOSKis-0.0-10.0.wav'
p449
aS'Kqu3pMD7ioI-30.0-40.0.wav'
p450
aS'PsQjBygp6tg-180.0-190.0.wav'
p451
aS'QjbwvHWNlMA-170.0-180.0.wav'
p452
aS'tQcgpL6r7kU-10.0-20.0.wav'
p453
aS'_Siv8XZ8_hs-0.0-10.0.wav'
p454
aS'DZdjIyfgXrc-30.0-40.0.wav'
p455
aS'qIWIboNFK9o-210.0-220.0.wav'
p456
aS'Sjy7vWlqp3E-520.0-530.0.wav'
p457
aS'WMEPgR5FAUU-60.0-70.0.wav'
p458
aS'2tjfjpoteuU-30.0-40.0.wav'
p459
aS'7U2MQMg9qRQ-180.0-190.0.wav'
p460
aS'hJpfVFMsrSs-80.0-90.0.wav'
p461
aS'xGea_hO7qmM-240.0-250.0.wav'
p462
aS'OqI0zgo9LBg-470.0-480.0.wav'
p463
aS'UT9Thi6Gqi4-50.0-60.0.wav'
p464
aS'g5Y5J5NsTUY-30.0-40.0.wav'
p465
aS'l9l7XHojqe4-30.0-40.0.wav'
p466
aS'PWjnPo9L0ys-40.0-50.0.wav'
p467
aS'U5dTujDqiRg-140.0-150.0.wav'
p468
aS'-A7bqoJb7Ms-30.0-40.0.wav'
p469
aS'-4u3DCSJBXI-530.0-540.0.wav'
p470
aS'1ND5drEmyZc-30.0-40.0.wav'
p471
aS'bO6M3tdN4hU-180.0-190.0.wav'
p472
aS'cuthSyOKCRY-140.0-150.0.wav'
p473
aS'FJj-e2LJdrk-80.0-90.0.wav'
p474
aS'GIeKmBPxn2Q-10.0-20.0.wav'
p475
aS'Qu5--bkpNd8-0.0-10.0.wav'
p476
aS'QUaBS42tZe8-10.0-20.0.wav'
p477
aS'Rr8ywA4acAI-530.0-540.0.wav'
p478
aS'RIHyXEmjHFA-260.0-270.0.wav'
p479
aS'72k_uKXKnUU-0.0-10.0.wav'
p480
aS'aszIRpqYH2g-30.0-40.0.wav'
p481
aS'AS_9ENNd5po-20.0-30.0.wav'
p482
aS'GVDlE4EPeU0-30.0-40.0.wav'
p483
aS'FfpqV_ctXAI-0.0-10.0.wav'
p484
aS'hmTtwfXyygM-510.0-520.0.wav'
p485
aS'IsXAFHq3hdg-220.0-230.0.wav'
p486
aS'sNIb3aNgVkw-370.0-380.0.wav'
p487
aS'yhV7vjnHBk4-10.0-20.0.wav'
p488
aS'-EOb2W96aDs-21.0-31.0.wav'
p489
aS'3EjfzIjHKOM-30.0-40.0.wav'
p490
aS'9f0oRjsfm5c-140.0-150.0.wav'
p491
aS'9F3flBiEn6Y-40.0-50.0.wav'
p492
aS'fTa9Wbt55JQ-50.0-60.0.wav'
p493
aS'SQMgbWArwQA-40.0-50.0.wav'
p494
aS'LntYc8gxolI-0.0-10.0.wav'
p495
aS'Wk8Jrc6CU84-30.0-40.0.wav'
p496
aS'1PEHTnpAc3k-330.0-340.0.wav'
p497
aS'HzD5XVZkM3I-100.0-110.0.wav'
p498
aS'hzDoIpLfRGQ-560.0-570.0.wav'
p499
aS'PepIVHrmI00-30.0-40.0.wav'
p500
aS'zHJ00Qzs3pg-340.0-350.0.wav'
p501
aS'a6_7c9NLcTo-70.0-80.0.wav'
p502
aS'AIPbUe5za4Q-40.0-50.0.wav'
p503
aS'aODFI6g3qXA-530.0-540.0.wav'
p504
aS'AoEQ7jfRPfE-0.0-10.0.wav'
p505
aS'AUkh8Bd1qZY-26.0-36.0.wav'
p506
aS's_gOf2WT_JI-90.0-100.0.wav'
p507
aS'LoLkqvhL9VE-490.0-500.0.wav'
p508
aS'-6v3UBTptAs-20.0-30.0.wav'
p509
aS'2aOZuG8tsok-190.0-200.0.wav'
p510
aS'37Mk3C8Wld0-130.0-140.0.wav'
p511
aS'3oo-3CLrIE4-230.0-240.0.wav'
p512
aS'4Il5lrOqGWg-80.0-90.0.wav'
p513
aS'5s3CrHkH9qY-120.0-130.0.wav'
p514
aS'imx5mCKJRO4-460.0-470.0.wav'
p515
aS'KXWa_nwfl9Q-0.0-10.0.wav'
p516
aS'QBW4P6ELogA-120.0-130.0.wav'
p517
aS'RMF2a7Rg1FA-280.0-290.0.wav'
p518
aS'RmInQ0nDsCs-17.0-27.0.wav'
p519
aS'gJC8uRqoGRU-40.0-50.0.wav'
p520
aS'LB2nIxtS2Jk-0.0-10.0.wav'
p521
aS'zBysNpbE6YY-0.0-10.0.wav'
p522
aS'6jHvBcyfXGk-20.0-30.0.wav'
p523
aS'9mfR5f9lFAc-10.0-20.0.wav'
p524
aS'9z4rAng_q-E-30.0-40.0.wav'
p525
aS'eleLGkzzsik-590.0-600.0.wav'
p526
aS'jeMRyvooWo4-300.0-310.0.wav'
p527
aS'QWW8cx7Ph6A-80.0-90.0.wav'
p528
aS'v5oIjMFi7CE-30.0-40.0.wav'
p529
aS'DkRmWaMpymk-40.0-50.0.wav'
p530
aS'DKUTRUVmt1A-60.0-70.0.wav'
p531
aS'P0vt2UHPuQk-210.0-220.0.wav'
p532
aS'p0wUexxq_uQ-100.0-110.0.wav'
p533
aS'x_dkBFOO8Gc-30.0-40.0.wav'
p534
aS'X_kUlojMdYw-230.0-240.0.wav'
p535
aS'2cyL_zv0fok-140.0-150.0.wav'
p536
aS'Ko9zO_q36Xw-160.0-170.0.wav'
p537
aS'kNSkaSMr4SE-0.0-10.0.wav'
p538
aS'WgKs8KSZzsg-15.0-25.0.wav'
p539
aS'8ipfS1VAjyI-30.0-40.0.wav'
p540
aS'Cf5TU3v7paA-80.0-90.0.wav'
p541
aS'cVLIvA_K04I-240.0-250.0.wav'
p542
aS'EwPU8h6NzOo-220.0-230.0.wav'
p543
aS'F1yaEz6ovkk-0.0-10.0.wav'
p544
aS'riV3Zo3DQ78-21.0-31.0.wav'
p545
aS'sE0BSuNSpkQ-100.0-110.0.wav'
p546
aS'lkIkuMEMhFU-340.0-350.0.wav'
p547
aS'6zKeH4a7Vyw-30.0-40.0.wav'
p548
aS'7FYlJMDuJFA-90.0-100.0.wav'
p549
aS'9LcgAF-z1cs-350.0-360.0.wav'
p550
aS'b7OXNvIB-e8-260.0-270.0.wav'
p551
aS'CkAGY3spYG8-0.0-10.0.wav'
p552
aS'VS81N_zn6t8-20.0-30.0.wav'
p553
aS'VS9NnoDfNC0-120.0-130.0.wav'
p554
aS'vsApH2fI1WQ-30.0-40.0.wav'
p555
aS'vuTl5fKZv8I-260.0-270.0.wav'
p556
aS'G9TpMEw6Qy8-110.0-120.0.wav'
p557
aS'ppFv-S9p2SM-30.0-40.0.wav'
p558
aS'-jogNJd5azg-0.0-10.0.wav'
p559
aS'2RVRmKonUcs-90.0-100.0.wav'
p560
aS'jadGOMTDbMI-0.0-10.0.wav'
p561
aS'PbvsdgK6zgE-380.0-390.0.wav'
p562
aS'xPGOHOv8e60-280.0-290.0.wav'
p563
aS'ChUZmS5fgrk-50.0-60.0.wav'
p564
aS'dug98XwS9BQ-0.0-10.0.wav'
p565
aS'dui-_7ccEds-50.0-60.0.wav'
p566
aS'f62Q-dmOkm0-0.0-10.0.wav'
p567
aS'PoVpNUOrW4w-0.0-10.0.wav'
p568
aS'W4Elbfbh3g0-120.0-130.0.wav'
p569
aS'-8HBJ-nwen4-10.0-20.0.wav'
p570
aS'1ofQQnNCuYw-500.0-510.0.wav'
p571
aS'1RcNFHoEApI-230.0-240.0.wav'
p572
aS'gi-6sJ2hJ4Q-70.0-80.0.wav'
p573
aS'P9qCivnQ18c-170.0-180.0.wav'
p574
aS'S3YbPJMyJTo-0.0-10.0.wav'
p575
aS'S45PQblHRvQ-150.0-160.0.wav'
p576
aS'tDrU6uk3tYs-180.0-190.0.wav'
p577
aS'AD7IPKljMvY-90.0-100.0.wav'
p578
aS'aDbtMqq2e4M-30.0-40.0.wav'
p579
aS'IjxL_th3lhU-0.0-10.0.wav'
p580
aS'j8y09Jc2x_k-0.0-10.0.wav'
p581
aS'6TTdiWGGoO4-10.0-20.0.wav'
p582
aS'GUwsBUG1tUE-190.0-200.0.wav'
p583
aS'rqQl8V9ccBU-80.0-90.0.wav'
p584
aS'Ig8pPU6L2FM-490.0-500.0.wav'
p585
aS'IphbLRmCybM-0.0-10.0.wav'
p586
aS'OB-EbpN9LZI-0.0-10.0.wav'
p587
aS'0pqL3X2QWkI-50.0-60.0.wav'
p588
aS'7UWus_opjn8-140.0-150.0.wav'
p589
aS'RSzEzzJ80Ps-180.0-190.0.wav'
p590
aS'ucppiBImPJ8-420.0-430.0.wav'
p591
aS'_a_uMwPJ31s-30.0-40.0.wav'
p592
aS'aWv9TmpEpcQ-160.0-170.0.wav'
p593
aS'Meym0XDdggQ-50.0-60.0.wav'
p594
aS'mr2wbDGJVBc-70.0-80.0.wav'
p595
aS'Mr8MLq97-cE-60.0-70.0.wav'
p596
aS'WNDz-bVIq2Q-0.0-10.0.wav'
p597
aS'3Ros9ySyF5s-60.0-70.0.wav'
p598
aS'516c6x_6-jU-10.0-20.0.wav'
p599
aS'a7Kh560atUk-30.0-40.0.wav'
p600
aS'c86fPLPAKkk-100.0-110.0.wav'
p601
aS'J43p3wMmubg-0.0-10.0.wav'
p602
aS'QuVYqo3KnOE-120.0-130.0.wav'
p603
aS'rqb2Xzkk_qc-240.0-250.0.wav'
p604
aS'x1XQRT1czCU-460.0-470.0.wav'
p605
aS'YYF9DzNNEzY-40.0-50.0.wav'
p606
aS'ktAiSXNFcyM-10.0-20.0.wav'
p607
aS'PjTWbQhOoIs-30.0-40.0.wav'
p608
aS'PjwXGiHQtQA-22.0-32.0.wav'
p609
aS'SeHSF7loHpI-20.0-30.0.wav'
p610
aS'SsqH7mENIhs-30.0-40.0.wav'
p611
aS'M4zWHABaGMs-160.0-170.0.wav'
p612
aS'TlYLncFO04k-40.0-50.0.wav'
p613
aS'uAp3OIWn1XM-150.0-160.0.wav'
p614
aS'WO8Al8HnEu8-300.0-310.0.wav'
p615
aS'dD06-E38ewk-50.0-60.0.wav'
p616
aS'toXNOUYuSc0-0.0-10.0.wav'
p617
aS'WtyLEeYKs7w-10.0-20.0.wav'
p618
aS'Hgtb5kCk6kA-30.0-40.0.wav'
p619
aS'oVUU75_H1Xk-260.0-270.0.wav'
p620
aS'QCIq_Bn3APA-20.0-30.0.wav'
p621
aS'QckWMDsJaF8-140.0-150.0.wav'
p622
aS'Vbq2yKyamDU-330.0-340.0.wav'
p623
aS'42v4Xf3gcTc-310.0-320.0.wav'
p624
aS'5zFk5iHPc24-180.0-190.0.wav'
p625
aS'Hhm6wIh1KKk-70.0-80.0.wav'
p626
aS'PuMRKuks1BA-30.0-40.0.wav'
p627
aS'_d_DjG5xijY-470.0-480.0.wav'
p628
aS'KkOlEbAxHTQ-10.0-20.0.wav'
p629
aS'mnDd8U93UoA-140.0-150.0.wav'
p630
aS'mNDrae7YUBE-30.0-40.0.wav'
p631
aS'MNele12lhkQ-310.0-320.0.wav'
p632
aS'o4k8XvooO6Y-30.0-40.0.wav'
p633
aS'o4RbMSNY2Ak-440.0-450.0.wav'
p634
aS'6ePmvhPDswI-0.0-10.0.wav'
p635
aS'E0b-uoKYTwE-400.0-410.0.wav'
p636
aS'j28kFIDveQc-30.0-40.0.wav'
p637
aS'J2ADqXwS-3Q-170.0-180.0.wav'
p638
aS'j2bf_omOft8-0.0-10.0.wav'
p639
aS'VcVGIz0XTBU-0.0-10.0.wav'
p640
aS'X019PH5B9uQ-0.0-10.0.wav'
p641
aS'gxI6_n9DAhk-500.0-510.0.wav'
p642
aS'gXIlDoIRfNw-0.0-10.0.wav'
p643
aS'gGUit313cU4-20.0-30.0.wav'
p644
aS'ikUGve-pnIo-440.0-450.0.wav'
p645
aS'lr-7lar7IAk-0.0-10.0.wav'
p646
aS'Lr-Gh58rXGc-120.0-130.0.wav'
p647
aS'NmzE2YA6qpc-40.0-50.0.wav'
p648
aS'h87hOI1iyaE-140.0-150.0.wav'
p649
aS'VHuEufQGWVM-420.0-430.0.wav'
p650
aS'-_6ZGvSbXYc-6.0-16.0.wav'
p651
aS'a2oaBKzgzFY-0.0-10.0.wav'
p652
aS'CzZly-l8Yl8-260.0-270.0.wav'
p653
aS'HyZapZ51sfU-20.0-30.0.wav'
p654
aS'JvOZQiRdDmw-110.0-120.0.wav'
p655
aS'vRKw-jdazuY-190.0-200.0.wav'
p656
aS'XbmQQXhbhu8-30.0-40.0.wav'
p657
aS'LQFJE7QJbLw-200.0-210.0.wav'
p658
aS'u1710HMjHM0-20.0-30.0.wav'
p659
aS'YaHHSUqEnKg-20.0-30.0.wav'
p660
aS'85Lc8KtED5s-40.0-50.0.wav'
p661
aS'B3CdB5_gn8w-70.0-80.0.wav'
p662
aS'E5_564xjsSA-10.0-20.0.wav'
p663
aS'i49kOYMEals-330.0-340.0.wav'
p664
aS'JV81IGG-wBI-300.0-310.0.wav'
p665
aS'CyEBCJxjghA-270.0-280.0.wav'
p666
aS'G1CivwCHzjg-20.0-30.0.wav'
p667
aS'nHFNIDculkw-30.0-40.0.wav'
p668
aS'nHGvX362se4-30.0-40.0.wav'
p669
aS'3LGoMBjmj4Y-30.0-40.0.wav'
p670
aS'53PqjRlvnp0-410.0-420.0.wav'
p671
aS'5ByuJwwDGXU-30.0-40.0.wav'
p672
aS'8WffPDixIPQ-340.0-350.0.wav'
p673
aS'8wHRnR5fwlM-8.0-18.0.wav'
p674
aS'9ltz1jNTZ2M-150.0-160.0.wav'
p675
aS'dasUHh7Z7wM-150.0-160.0.wav'
p676
aS'dY2RfLL2t3I-100.0-110.0.wav'
p677
aS'KmtguWDwJUw-0.0-10.0.wav'
p678
aS'tGMWFhvtEp0-10.0-20.0.wav'
p679
aS'XQo-SN_hPhQ-160.0-170.0.wav'
p680
aS'AUvTVymG9RU-60.0-70.0.wav'
p681
aS'SgAOtHY6EIE-30.0-40.0.wav'
p682
aS'FXiATv3VgpM-50.0-60.0.wav'
p683
aS'JQwLd8a5iCs-380.0-390.0.wav'
p684
aS'KsTZ59-1FiM-480.0-490.0.wav'
p685
aS'L_JS_kFRu54-0.0-10.0.wav'
p686
aS'UYs2dxwnmbo-13.0-23.0.wav'
p687
aS'uYxHcnb5q3Q-0.0-10.0.wav'
p688
aS'2ysE8dlDQsc-0.0-10.0.wav'
p689
aS'3pvsatgoOnQ-520.0-530.0.wav'
p690
aS'60R2iNw4ZGU-30.0-40.0.wav'
p691
aS'70K7Ujykki4-0.0-10.0.wav'
p692
aS'gELcPZSTe90-510.0-520.0.wav'
p693
aS'GEOnjynbBdg-240.0-250.0.wav'
p694
aS'D9-kt4E1puM-30.0-40.0.wav'
p695
aS'JrLHnIgZm_c-0.0-10.0.wav'
p696
aS'S2Xzf_ec5cQ-440.0-450.0.wav'
p697
aS'S1zBgmWeEtY-30.0-40.0.wav'
p698
aS'AyBlTUETS6A-130.0-140.0.wav'
p699
aS'ayerr4NQVGI-90.0-100.0.wav'
p700
aS'fLPhii02spw-30.0-40.0.wav'
p701
aS'g3DqBoBoTVo-30.0-40.0.wav'
p702
aS'HUlbfmKtKcw-440.0-450.0.wav'
p703
aS'HUm-OXjyoeg-30.0-40.0.wav'
p704
aS'luZW8Zkg-gc-450.0-460.0.wav'
p705
aS'sR14z-CwsJQ-0.0-10.0.wav'
p706
aS'ynORIiqaYZo-20.0-30.0.wav'
p707
aS'tUCtJLaYpH0-0.0-10.0.wav'
p708
aS'4uVN0DrV5Eo-0.0-10.0.wav'
p709
aS'dEx-vXeNSno-30.0-40.0.wav'
p710
aS'H3EKIR8WLMI-230.0-240.0.wav'
p711
aS'gfMDX2M5cBE-10.0-20.0.wav'
p712
aS'gFpF3rP-_Bo-400.0-410.0.wav'
p713
aS'h9RNvn1JGoY-30.0-40.0.wav'
p714
aS'n4Vtn-DnuYI-0.0-10.0.wav'
p715
aS'XtSVL173laE-0.0-10.0.wav'
p716
aS'-R9xewEdaKE-0.0-10.0.wav'
p717
aS'6hTevyriHQc-340.0-350.0.wav'
p718
aS'7IZLwVEx2dU-20.0-30.0.wav'
p719
aS'gBIiYs4hLMc-170.0-180.0.wav'
p720
aS'H3jPv3t2f-c-20.0-30.0.wav'
p721
aS'WkxSw7_JAs8-0.0-10.0.wav'
p722
aS'zolYX75eRI4-40.0-50.0.wav'
p723
aS'G6TkrueIBUU-540.0-550.0.wav'
p724
aS'GqFg_kAGfwQ-50.0-60.0.wav'
p725
aS'ptQ2jxQOA9k-40.0-50.0.wav'
p726
aS'qAWPzuELd38-300.0-310.0.wav'
p727
aS'swGrUv1lp0k-30.0-40.0.wav'
p728
aS'Y0UQtt4zgAM-110.0-120.0.wav'
p729
aS'4reLrP_7zqE-30.0-40.0.wav'
p730
aS'4RhpREvbXXs-330.0-340.0.wav'
p731
aS'byhFsYsv12w-10.0-20.0.wav'
p732
aS'BYjLCAURfmc-0.0-10.0.wav'
p733
aS'EJoGj5C9ZJs-340.0-350.0.wav'
p734
aS'EPbvEIjk8js-70.0-80.0.wav'
p735
aS'QMeOeAUwZ_E-40.0-50.0.wav'
p736
aS'2_jiYlskREY-0.0-10.0.wav'
p737
aS'50cHHeyBk1s-90.0-100.0.wav'
p738
aS'APsDjOI-zxA-50.0-60.0.wav'
p739
aS'cbOmXgeUNq0-13.0-23.0.wav'
p740
aS'dMBh8QPnn7k-30.0-40.0.wav'
p741
aS'fcnuRDwsHZc-23.0-33.0.wav'
p742
aS'x4QEJec9Yis-340.0-350.0.wav'
p743
aS'__uXHfvU-C4-270.0-280.0.wav'
p744
aS'P3hJ9CzV3qk-290.0-300.0.wav'
p745
aS'lO_z0nRmZv8-0.0-10.0.wav'
p746
aS'8m4Guf9U7cA-70.0-80.0.wav'
p747
aS'8m7qNw1sWcA-290.0-300.0.wav'
p748
aS'BJ8tu4gVrkE-100.0-110.0.wav'
p749
aS'JDI5KXBHAJM-90.0-100.0.wav'
p750
aS'RyV7FlMuXjo-70.0-80.0.wav'
p751
aS'tYFYkNIOUwc-240.0-250.0.wav'
p752
aS'yClu6ciddMg-10.0-20.0.wav'
p753
aS'YcOmXxVXXuk-30.0-40.0.wav'
p754
aS'dPfBySd8okc-180.0-190.0.wav'
p755
aS'IkinPO6Z2iE-150.0-160.0.wav'
p756
aS'IIOh8Wtb1zs-90.0-100.0.wav'
p757
aS'WNqDhGy1ZK0-30.0-40.0.wav'
p758
aS'zrEkVb1SFjU-140.0-150.0.wav'
p759
aS'1PQzQMkKJWI-6.0-16.0.wav'
p760
aS'5Spjj6cCsLY-0.0-10.0.wav'
p761
aS'AMeje0q1QXE-0.0-10.0.wav'
p762
aS'4lypqfYJnfQ-20.0-30.0.wav'
p763
aS'DSMBcNPprmI-30.0-40.0.wav'
p764
aS'rHQHPfUEGlM-130.0-140.0.wav'
p765
aS'bzutiFJ9G2g-30.0-40.0.wav'
p766
aS'HuABReigFxQ-40.0-50.0.wav'
p767
aS'pndNoTYyjHg-0.0-10.0.wav'
p768
aS'PNFN3yvApJg-0.0-10.0.wav'
p769
aS'w8biPyp4QP8-280.0-290.0.wav'
p770
aS'Wf64zoKrBII-120.0-130.0.wav'
p771
aS'-lZzxQkp_Eo-410.0-420.0.wav'
p772
aS'5udmt-msog8-0.0-10.0.wav'
p773
aS'JPUAafvtPB4-20.0-30.0.wav'
p774
aS'RS9vsyYiOU8-550.0-560.0.wav'
p775
aS'S4lWnAyLVeo-0.0-10.0.wav'
p776
aS'tSJ2sFg7RtQ-30.0-40.0.wav'
p777
aS'UBtCWLZGt08-200.0-210.0.wav'
p778
aS'uqCXSBvR3fc-50.0-60.0.wav'
p779
aS'DB1hRkxWVKQ-330.0-340.0.wav'
p780
aS'DZlo8WRSx3A-100.0-110.0.wav'
p781
aS'E9uuqvTzhBc-160.0-170.0.wav'
p782
aS'qhY0Hn5RPnU-510.0-520.0.wav'
p783
aS'qHzH5QGDKTQ-4.0-14.0.wav'
p784
aS'qhZIRPwBeYk-70.0-80.0.wav'
p785
aS'zaTT8Kq1VhI-0.0-10.0.wav'
p786
aS'DemILm0UbJo-150.0-160.0.wav'
p787
aS'I0E-Mf1geUE-0.0-10.0.wav'
p788
aS'lFWdzpY8AUQ-30.0-40.0.wav'
p789
aS'q6baKLLxcxI-0.0-10.0.wav'
p790
aS'xzUTG5lPu08-0.0-10.0.wav'
p791
aS'eAxDEMQdVFY-10.0-20.0.wav'
p792
aS'eayuCYQGDtk-440.0-450.0.wav'
p793
aS'Ic6vMmCGDAo-30.0-40.0.wav'
p794
aS'Rf3CFBz6I4A-150.0-160.0.wav'
p795
aS'dbltsMpFhb0-30.0-40.0.wav'
p796
aS'IQwEAzJA70w-30.0-40.0.wav'
p797
aS'jas_aMTUni8-80.0-90.0.wav'
p798
aS'PadUGhWqdNY-10.0-20.0.wav'
p799
aS'pZnnrrpBokY-170.0-180.0.wav'
p800
aS'RxIyIgrzDZU-25.0-35.0.wav'
p801
aS'CDogWH2AyqI-30.0-40.0.wav'
p802
aS'OokDcZ0aUcs-16.0-26.0.wav'
p803
aS'wuMoU2NU0xU-80.0-90.0.wav'
p804
aS'2ZY58lsyvhk-160.0-170.0.wav'
p805
aS'8YuNFJ4_ujc-160.0-170.0.wav'
p806
aS'FIYAenbAJBI-20.0-30.0.wav'
p807
aS'HZQPxxcahLU-60.0-70.0.wav'
p808
aS'KvoXlqOg6Ng-30.0-40.0.wav'
p809
aS'PyT7BYyYa9s-560.0-570.0.wav'
p810
aS'W6SECeLL3hE-120.0-130.0.wav'
p811
aS'hPeefHdao2U-0.0-10.0.wav'
p812
aS'ZUXLX0nf0js-140.0-150.0.wav'
p813
aS'0uiKcyNicYI-20.0-30.0.wav'
p814
aS'3XZ52xOx1x0-10.0-20.0.wav'
p815
aS'4yYROvTYF1Y-510.0-520.0.wav'
p816
aS'64Q_TeENgbs-320.0-330.0.wav'
p817
aS'9-DYIrMliZw-30.0-40.0.wav'
p818
aS'b59sxRoUkew-250.0-260.0.wav'
p819
aS'b5AWNA8XfAA-20.0-30.0.wav'
p820
aS'g-T1jHTX028-10.0-20.0.wav'
p821
aS'g2bQl5iDmnY-270.0-280.0.wav'
p822
aS'peFwwu-Vmz4-90.0-100.0.wav'
p823
aS'WMX8xIDLB5k-30.0-40.0.wav'
p824
aS'EUkrChTGiCA-240.0-250.0.wav'
p825
aS'FJZWhgvdk5c-540.0-550.0.wav'
p826
aS'fk4CsoMD_hk-90.0-100.0.wav'
p827
aS'FK7nYsZq8-I-70.0-80.0.wav'
p828
aS'WIPWvmbBOwg-420.0-430.0.wav'
p829
aS'yORIi5ILaSM-400.0-410.0.wav'
p830
aS'JMooMUHU0qY-320.0-330.0.wav'
p831
aS'jmP_8EuWy_M-370.0-380.0.wav'
p832
aS'PHUltEJFuA4-200.0-210.0.wav'
p833
aS'piO8gzJlOXs-0.0-10.0.wav'
p834
aS'SCi90FDIu-0-170.0-180.0.wav'
p835
aS'Sue2BR1AHUE-70.0-80.0.wav'
p836
aS'_DdViR4cAMQ-0.0-10.0.wav'
p837
aS'BezPJyClgso-430.0-440.0.wav'
p838
aS'iRSBj7gl5eE-320.0-330.0.wav'
p839
aS'p_J-l4pCHO0-0.0-10.0.wav'
p840
aS'3Dcj4yjDCiM-10.0-20.0.wav'
p841
aS'7LvNZr6id7c-220.0-230.0.wav'
p842
aS'dP_ycuf_HnE-30.0-40.0.wav'
p843
aS'DS2YC-31YXg-70.0-80.0.wav'
p844
aS'H_-xowIPQ6A-10.0-20.0.wav'
p845
aS'jTpY7awcqxs-0.0-3.0.wav'
p846
aS'kJAfJjQJZO0-130.0-140.0.wav'
p847
aS'DXOKVucAk4c-30.0-40.0.wav'
p848
aS'dYuXKVQXJZM-20.0-30.0.wav'
p849
aS'idQfwZscdtQ-0.0-10.0.wav'
p850
aS'MbH14tBlICY-40.0-50.0.wav'
p851
aS'O2OIQK7h_Ko-110.0-120.0.wav'
p852
aS'VM0q3ei6qUU-30.0-40.0.wav'
p853
aS'Y3Z9EX8kX60-380.0-390.0.wav'
p854
aS'3R4Tqv6fZVM-120.0-130.0.wav'
p855
aS'bit3IOiGuNM-0.0-10.0.wav'
p856
aS'htITVxyGoFI-20.0-30.0.wav'
p857
aS'WMgyrK7MXJM-19.0-29.0.wav'
p858
aS'FBlbwppgAmw-70.0-80.0.wav'
p859
aS'ixjX-lhzgVY-0.0-10.0.wav'
p860
aS'kRVnF7fuTas-30.0-40.0.wav'
p861
aS'l5SrCkBqmwU-30.0-40.0.wav'
p862
aS'oBr-q_44Qwk-70.0-80.0.wav'
p863
aS'SpOjghog8m8-510.0-520.0.wav'
p864
aS't6iUtzTTckY-20.0-30.0.wav'
p865
aS't6jcudwX884-10.0-20.0.wav'
p866
aS'tZGkAkXgPko-30.0-40.0.wav'
p867
aS'54QjIJBfdKk-20.0-30.0.wav'
p868
aS'6hDYHPD0JK8-30.0-40.0.wav'
p869
aS'EvM4WY7XY6M-350.0-360.0.wav'
p870
aS'j_6ubVQTISo-570.0-580.0.wav'
p871
aS'oWylB0w5wYU-0.0-10.0.wav'
p872
aS'WPrh5wEJqLs-340.0-350.0.wav'
p873
aS'xdm9iNtbhAg-570.0-580.0.wav'
p874
aS'XDQfQp2YR2o-170.0-180.0.wav'
p875
aS'mRvWxXG0Q1g-170.0-180.0.wav'
p876
aS'mrvXRCpYyZk-30.0-40.0.wav'
p877
aS'28bSl4r1kwQ-210.0-220.0.wav'
p878
aS'2KMIBdO1638-40.0-50.0.wav'
p879
aS'2LmcomYBRtc-10.0-20.0.wav'
p880
aS'8aa23XOClhA-180.0-190.0.wav'
p881
aS'95bWIjoiXmg-50.0-60.0.wav'
p882
aS'Cdft1IU2jhU-270.0-280.0.wav'
p883
aS'cDgbHUqY8Jo-10.0-20.0.wav'
p884
aS'EyrEWpBjXus-300.0-310.0.wav'
p885
aS'PlBwelzTF9A-0.0-10.0.wav'
p886
aS'plBZBL1dZd8-30.0-40.0.wav'
p887
aS'QRJ47kbl0Lg-40.0-50.0.wav'
p888
aS'ZXNrOm9ep1U-0.0-10.0.wav'
p889
aS'nuql65EH_uQ-120.0-130.0.wav'
p890
aS'rASgU4SPD3U-150.0-160.0.wav'
p891
aS'U0cpha5Glnk-40.0-50.0.wav'
p892
aS'UnOiZ6cgEvg-0.0-10.0.wav'
p893
aS'unp4vd8-unA-0.0-10.0.wav'
p894
aS'wI-BM-JVXnE-30.0-40.0.wav'
p895
aS'0eE1KfKlA6c-40.0-50.0.wav'
p896
aS'2ogedfOxSUQ-310.0-320.0.wav'
p897
aS'71CJl3FB-ak-70.0-80.0.wav'
p898
aS'9XeY3p3VFiE-30.0-40.0.wav'
p899
aS'RQXzO4-vPV8-80.0-90.0.wav'
p900
aS'RSI1Wd0m-NI-30.0-40.0.wav'
p901
aS's0uBmegSRHI-530.0-540.0.wav'
p902
aS'Q1Nu2Yl4iDA-30.0-40.0.wav'
p903
aS'_mIR3-n6wvI-0.0-10.0.wav'
p904
aS'xSY7KvO48jg-60.0-70.0.wav'
p905
aS'Y77Xx11RFrg-10.0-20.0.wav'
p906
aS'3Fa2-oSu0g4-0.0-10.0.wav'
p907
aS'5xIGqs7TrzQ-270.0-280.0.wav'
p908
aS'kcUT2ca8-nU-0.0-10.0.wav'
p909
aS'Bnfc0ZcoOXA-30.0-40.0.wav'
p910
aS'hBEvFPR0edo-30.0-40.0.wav'
p911
aS'r5M1tr0Rr4s-310.0-320.0.wav'
p912
aS'TFq18Gmg7Is-200.0-210.0.wav'
p913
aS'9T7nQfioDQ4-0.0-10.0.wav'
p914
aS'hSZPDYriJ3s-130.0-140.0.wav'
p915
aS'Uxvnl0zlaVc-280.0-290.0.wav'
p916
aS'udAjOKk7hzo-0.0-10.0.wav'
p917
aS'a_X5h9VCEjI-150.0-160.0.wav'
p918
aS'LnKhHesSZxM-80.0-90.0.wav'
p919
aS'OhMnpBKASrY-170.0-180.0.wav'
p920
aS'OlGGiF0AGek-90.0-100.0.wav'
p921
aS'lf5iBwgH-hk-30.0-40.0.wav'
p922
aS'lf6cRs-NJDw-40.0-50.0.wav'
p923
aS'7GlWI5jpf0E-0.0-10.0.wav'
p924
aS'9jnmupUs-1o-90.0-100.0.wav'
p925
aS'dOaLQAz6HCI-540.0-550.0.wav'
p926
aS'fAV8d1Myj1A-350.0-360.0.wav'
p927
aS'n7SSGsLItbo-210.0-220.0.wav'
p928
aS'UolBUbUkQUY-340.0-350.0.wav'
p929
aS'w0Qzr2sFUcM-130.0-140.0.wav'
p930
aS'nTmuaFwwa3c-470.0-480.0.wav'
p931
aS'pFwYlEC9ryM-30.0-40.0.wav'
p932
aS'rEf5w7ibPmc-210.0-220.0.wav'
p933
aS'LhRnLDyLa8M-350.0-360.0.wav'
p934
aS'45bCKLDxE3k-0.0-10.0.wav'
p935
aS'CiKL4bMssxQ-0.0-10.0.wav'
p936
aS'IHwnuhDTmYI-30.0-40.0.wav'
p937
aS'qhjWQDqY2vE-30.0-40.0.wav'
p938
aS'anOBnzzjBlk-30.0-40.0.wav'
p939
aS'jOxdE5E091M-240.0-250.0.wav'
p940
aS'jozA1yS-F_U-320.0-330.0.wav'
p941
aS'jtaj9K8A1cc-0.0-10.0.wav'
p942
aS'UuJx4L-YXvg-50.0-60.0.wav'
p943
aS'Z65QxowiEeE-0.0-10.0.wav'
p944
aS'z6bmR3Q-tvE-250.0-260.0.wav'
p945
aS'1tDEL8aOSiY-0.0-10.0.wav'
p946
aS'DAt_Xv9rL9U-0.0-10.0.wav'
p947
aS'davYja2drDg-340.0-350.0.wav'
p948
aS'JjZLha-l-Lk-240.0-250.0.wav'
p949
aS'th-TqONTy5s-30.0-40.0.wav'
p950
aS'Yz-iDE2NBMo-10.0-20.0.wav'
p951
aS'OckDleIrLjo-30.0-40.0.wav'
p952
aS'SsfkXSLAv7E-30.0-40.0.wav'
p953
aS'1wDI8wyCHQo-150.0-160.0.wav'
p954
aS'bDsl-bj0aDM-260.0-270.0.wav'
p955
aS'BZ0VdRyLEOE-290.0-300.0.wav'
p956
aS'F_OMJfZJ_QA-120.0-130.0.wav'
p957
aS'rZtw3LwZ9Fc-24.0-34.0.wav'
p958
aS'ySzwjU28QsY-12.0-22.0.wav'
p959
aS'_9SzFrTNqRA-410.0-420.0.wav'
p960
aS'_9zpIBWdb98-20.0-30.0.wav'
p961
aS'csMrraPipg8-440.0-450.0.wav'
p962
aS'GRUgRCK06qE-30.0-40.0.wav'
p963
aS'JiIOelXgjRQ-90.0-100.0.wav'
p964
aS'7b5lc0VQTa4-10.0-20.0.wav'
p965
aS'bXWC0zMEFN4-100.0-110.0.wav'
p966
aS'Doh2iZh0kag-20.0-30.0.wav'
p967
aS'dojJeEdEt1E-23.0-33.0.wav'
p968
aS'GcWjSotB9RE-270.0-280.0.wav'
p969
aS'ubUFl0wPaeM-0.0-10.0.wav'
p970
aS'YxWMOMBdPQs-30.0-40.0.wav'
p971
aS'YxXaEdRyoLc-210.0-220.0.wav'
p972
aS'_P9oi3v-bK8-0.0-10.0.wav'
p973
aS'F0JV0HoS8S0-520.0-530.0.wav'
p974
aS'gNvpUMzUE4Y-210.0-220.0.wav'
p975
aS'gNyeqicx1WU-460.0-470.0.wav'
p976
aS'gW6SachdL3Q-210.0-220.0.wav'
p977
aS'Gw7XkqBStaA-70.0-80.0.wav'
p978
aS'OT0-89zHo4g-20.0-30.0.wav'
p979
aS'6-uUlFMNUdY-260.0-270.0.wav'
p980
aS'6-_2WfpDdE8-0.0-10.0.wav'
p981
aS'PkjnJRI0pUY-30.0-40.0.wav'
p982
aS'rTQTi-ku-Io-360.0-370.0.wav'
p983
aS'rtRMRQ39EYw-30.0-40.0.wav'
p984
aS'Q2BmmFxPrsE-110.0-120.0.wav'
p985
aS'q2dCVjuIE9w-80.0-90.0.wav'
p986
aS'SVnjlTFfO1k-110.0-120.0.wav'
p987
aS'v1fcdB6dZaY-0.0-10.0.wav'
p988
aS'zeLpdLQ4uHE-20.0-30.0.wav'
p989
aS'Iyt5gB2ya9M-0.0-10.0.wav'
p990
aS'rdbXpr5ECMg-140.0-150.0.wav'
p991
aS'-SZhGRZZZT4-60.0-70.0.wav'
p992
aS'HIN2Dx2rueg-520.0-530.0.wav'
p993
aS'KhW-rv91GQk-380.0-390.0.wav'
p994
aS'YFRkFML7UXs-30.0-40.0.wav'
p995
aS'bTiivMf7miU-70.0-80.0.wav'
p996
aS'FpDvY00kSQI-30.0-40.0.wav'
p997
aS'hsrxnIEwFks-100.0-110.0.wav'
p998
aS'Sdta5YysCCc-30.0-40.0.wav'
p999
aS'styjjyAHbhA-50.0-60.0.wav'
p1000
aS'stYWJdCtsdI-270.0-280.0.wav'
p1001
aS'1Sun3ym08IU-20.0-30.0.wav'
p1002
aS'3piMcpEf14g-80.0-90.0.wav'
p1003
aS'AczTyR947vU-30.0-40.0.wav'
p1004
aS'Fr-j4bNWEwM-240.0-250.0.wav'
p1005
aS'JPA5cyMRsas-10.0-20.0.wav'
p1006
aS'JPDkH0ROKII-440.0-450.0.wav'
p1007
aS'UFY7R8_l4Uw-30.0-40.0.wav'
p1008
aS'-twSsq6Rj_I-140.0-150.0.wav'
p1009
aS'3TtT_A7FFJo-140.0-150.0.wav'
p1010
aS'9O5YUeEWicU-130.0-140.0.wav'
p1011
aS'Acocs5Dbr_U-590.0-600.0.wav'
p1012
aS'c2X4UQIFaTs-110.0-120.0.wav'
p1013
aS'dgaNsIaJGtg-370.0-380.0.wav'
p1014
aS'bLGdIwHelhQ-120.0-130.0.wav'
p1015
aS'mTURfrRuNc8-18.0-28.0.wav'
p1016
aS'Ns-ir1891Vo-0.0-10.0.wav'
p1017
aS'wXKfA83nC78-60.0-70.0.wav'
p1018
aS'423D054nAy4-0.0-10.0.wav'
p1019
aS'6cUNCvN71UY-30.0-40.0.wav'
p1020
aS'ENltVDZTM4I-50.0-60.0.wav'
p1021
aS'XGhVoUapFXU-230.0-240.0.wav'
p1022
aS'-LqWxIHGXew-10.0-20.0.wav'
p1023
aS'07yWAi5Wkdo-30.0-40.0.wav'
p1024
aS'5cKpRLcl52c-30.0-40.0.wav'
p1025
aS'6DvZikcsjds-160.0-170.0.wav'
p1026
aS'B6NTSyH5t5I-19.0-29.0.wav'
p1027
aS'qv0zDcUePG8-270.0-280.0.wav'
p1028
aS'qV57WjZ6LRQ-10.0-20.0.wav'
p1029
aS'THPBrNl2ahY-130.0-140.0.wav'
p1030
aS'THpPET_d3js-130.0-140.0.wav'
p1031
aS'tIC6mNMjeyI-0.0-10.0.wav'
p1032
aS'xPzdlZnWsO4-110.0-120.0.wav'
p1033
aS'_3ift1qUB34-430.0-440.0.wav'
p1034
aS'nPPEHKYK7FY-210.0-220.0.wav'
p1035
aS'uauU0TI7M0w-330.0-340.0.wav'
p1036
aS'W8VGJQC3UBI-10.0-20.0.wav'
p1037
aS'x_psuOu5YQA-440.0-450.0.wav'
p1038
aS'22JLbdkJSkU-410.0-420.0.wav'
p1039
aS'39tn3BTjfXA-190.0-200.0.wav'
p1040
aS'4c5h3baN8mc-410.0-420.0.wav'
p1041
aS'X329GeQeCN4-0.0-10.0.wav'
p1042
aS'I7_KDZOYIgk-150.0-160.0.wav'
p1043
aS'lcBzTMoTyPg-50.0-60.0.wav'
p1044
aS'qEWYPv_OlFc-80.0-90.0.wav'
p1045
aS'u2WmWqRUN1o-40.0-50.0.wav'
p1046
aS'U7-Onf1QyRY-310.0-320.0.wav'
p1047
aS'u796GtDV73Q-0.0-10.0.wav'
p1048
aS'yIuP1-XdPPo-0.0-10.0.wav'
p1049
aS'yoyaJ5rLcUc-50.0-60.0.wav'
p1050
aS'yYK7_Hom0EQ-360.0-370.0.wav'
p1051
aS'646ifVDZDss-15.0-25.0.wav'
p1052
aS'BL4y_0q8Kj4-60.0-70.0.wav'
p1053
aS'If3xxTjz5Nw-30.0-40.0.wav'
p1054
aS'SoBXBM6YALs-50.0-60.0.wav'
p1055
aS'YklSwADBOkg-310.0-320.0.wav'
p1056
aS'lsNyFuBBD5Q-10.0-20.0.wav'
p1057
aS'XIsPHhrn90E-0.0-10.0.wav'
p1058
aS'5Y4sMYaRh3g-80.0-90.0.wav'
p1059
aS'5y8KfDRsVOM-0.0-10.0.wav'
p1060
aS'5Y9CDEfnKvQ-170.0-180.0.wav'
p1061
aS'aWXQpIZQO6I-120.0-130.0.wav'
p1062
aS'wUUMQhSQOfA-190.0-200.0.wav'
p1063
aS'xqe-f5F9bwA-0.0-10.0.wav'
p1064
aS'vKmaqjtTy-8-30.0-40.0.wav'
p1065
aS'bgi5YxJwF80-10.0-20.0.wav'
p1066
aS'eQjW0hI6EzU-30.0-40.0.wav'
p1067
aS'R6U0hvcnSIo-70.0-80.0.wav'
p1068
aS'WMOw717cpvU-0.0-10.0.wav'
p1069
aS'KWQ6Qtk6EsQ-150.0-160.0.wav'
p1070
aS'1ctd-cKvr6k-10.0-20.0.wav'
p1071
aS'VGWw8_TEje0-30.0-40.0.wav'
p1072
aS'AbbOC_ciGCc-10.0-20.0.wav'
p1073
aS'ABDCoedu-K8-150.0-160.0.wav'
p1074
aS'e6p3grT5R5E-80.0-90.0.wav'
p1075
aS'VUh5oOMQwhA-420.0-430.0.wav'
p1076
aS'w_pfqaPiPrQ-30.0-40.0.wav'
p1077
aS'hL7BcSw3H9I-130.0-140.0.wav'
p1078
aS'iZPvxWCa9Ac-0.0-10.0.wav'
p1079
aS'QBN8cFplYM4-70.0-80.0.wav'
p1080
aS'BLTl6fwxUPA-30.0-40.0.wav'
p1081
aS'dk7-WCuT2Qg-80.0-90.0.wav'
p1082
aS'dMJE2NniRV4-0.0-10.0.wav'
p1083
aS'gb6pc_sPT-I-220.0-230.0.wav'
p1084
aS'uz6dbXV-5MM-30.0-40.0.wav'
p1085
aS'zAinf01o_v0-90.0-100.0.wav'
p1086
aS'4nrLt3VIkbQ-0.0-10.0.wav'
p1087
aS'bXD0rW8pcWM-30.0-40.0.wav'
p1088
aS'U27eGlXom-I-310.0-320.0.wav'
p1089
aS'eOOnwFh6bS8-10.0-20.0.wav'
p1090
aS'LEYmKFMbtp8-300.0-310.0.wav'
p1091
aS'QamSfyBoA9k-50.0-60.0.wav'
p1092
aS'yFSOzS8bKjw-70.0-80.0.wav'
p1093
aS'AFiqv1lG0JI-0.0-10.0.wav'
p1094
aS'QX3IacKSzoY-30.0-40.0.wav'
p1095
aS'urvNqpinKeY-60.0-70.0.wav'
p1096
aS'0C8PTjL34Nw-0.0-10.0.wav'
p1097
aS'Atdr5GfNFkY-150.0-160.0.wav'
p1098
aS'CXy3ViQ8TVA-30.0-40.0.wav'
p1099
aS'PIfeT49g5fY-250.0-260.0.wav'
p1100
aS'Q7XSj65Dx2E-20.0-30.0.wav'
p1101
aS'0T7TlRL1kX4-20.0-30.0.wav'
p1102
aS'4qujVzaoiDA-30.0-40.0.wav'
p1103
aS'_hYQZe4km7g-60.0-70.0.wav'
p1104
aS'arfWAxm7yd4-220.0-230.0.wav'
p1105
aS'BBTtDDW3jZo-30.0-40.0.wav'
p1106
aS'cJIGyj6CEWQ-180.0-190.0.wav'
p1107
aS'Dp-L7dnKTUk-290.0-300.0.wav'
p1108
aS'EXLraFlKgH0-390.0-400.0.wav'
p1109
aS'IeUE4Rm9NXk-10.0-20.0.wav'
p1110
aS'jzPCfOkeei4-60.0-70.0.wav'
p1111
aS'RwkDywdTVFY-20.0-30.0.wav'
p1112
aS'jy6JWHp6J38-20.0-30.0.wav'
p1113
aS'jY7BZawstFc-3.0-13.0.wav'
p1114
aS'klLFw1vM5y4-170.0-180.0.wav'
p1115
aS'Qh97hQ2Qhqo-170.0-180.0.wav'
p1116
aS'T99MgO9zr8w-160.0-170.0.wav'
p1117
aS'_LLMgqoduOg-240.0-250.0.wav'
p1118
aS'i6YdIgHkXHA-40.0-50.0.wav'
p1119
aS'pogdJM-hdEA-0.0-10.0.wav'
p1120
aS'sVEhE127DIE-50.0-60.0.wav'
p1121
aS'6eoGjVV2KzE-0.0-10.0.wav'
p1122
aS'f44gTfNrgZI-20.0-30.0.wav'
p1123
aS'fVFbZWhUL6s-30.0-40.0.wav'
p1124
aS'GvvMsU5jLdQ-30.0-40.0.wav'
p1125
aS'fwbthMen6rg-320.0-330.0.wav'
p1126
aS'jL-y6t-WILg-10.0-20.0.wav'
p1127
aS'JrTKpPID1PY-30.0-40.0.wav'
p1128
aS'SnIO_sPlh4Q-320.0-330.0.wav'
p1129
aS'taO5Zptfixk-200.0-210.0.wav'
p1130
aS'Z-btYFmn5SA-230.0-240.0.wav'
p1131
aS'zDYnmuZS-Kc-110.0-120.0.wav'
p1132
aS'ZeCVRbgyVag-100.0-110.0.wav'
p1133
aS'zFwTPwNZDdg-0.0-10.0.wav'
p1134
aS'_kxm-u2ie9I-200.0-210.0.wav'
p1135
aS'_L5yZsD0RXo-110.0-120.0.wav'
p1136
aS'HUZ8UcNY9kc-10.0-20.0.wav'
p1137
aS'lWicJsA00xU-80.0-90.0.wav'
p1138
aS'N3Aie-lgTFI-100.0-110.0.wav'
p1139
aS'rSMUh8rJB2E-170.0-180.0.wav'
p1140
aS'-181c8I5GKY-90.0-100.0.wav'
p1141
aS'kY1jEiPRLOo-230.0-240.0.wav'
p1142
aS'Ky1x1JaZvgE-260.0-270.0.wav'
p1143
aS'zEaXHrB-2s4-230.0-240.0.wav'
p1144
aS'E4aOChVBc68-27.0-37.0.wav'
p1145
aS'ICf_IempFF0-180.0-190.0.wav'
p1146
aS'j3IkgQobrJA-30.0-40.0.wav'
p1147
aS'l9UGv8vMq80-250.0-260.0.wav'
p1148
aS'P5Tf_ioOi2c-0.0-10.0.wav'
p1149
aS'peTVaB7omYU-30.0-40.0.wav'
p1150
aS'qzdstzUv-Nc-340.0-350.0.wav'
p1151
aS'ux-WQKLugGg-120.0-130.0.wav'
p1152
aS'W5855EwFH_w-40.0-50.0.wav'
p1153
aS'1g6K-oTP_gg-0.0-10.0.wav'
p1154
aS'2D2n1KG9UWw-0.0-10.0.wav'
p1155
aS'7kh1I6R7PW4-200.0-210.0.wav'
p1156
aS'dvr-LyxKyr8-0.0-10.0.wav'
p1157
aS'jD84dZcwLFA-20.0-30.0.wav'
p1158
aS'ld0W4xWNAvI-80.0-90.0.wav'
p1159
aS'aSdAuoU7tGw-120.0-130.0.wav'
p1160
aS'JXQxdQt3Zac-50.0-60.0.wav'
p1161
aS'pzNw0Y-JseU-40.0-50.0.wav'
p1162
aS'zgGRuxIW2SE-30.0-40.0.wav'
p1163
aS'Bxl1DPrney8-550.0-560.0.wav'
p1164
aS'bXlHw4_g5ok-40.0-50.0.wav'
p1165
aS'f6x3DEai5Eg-30.0-40.0.wav'
p1166
aS'hLpaevKqYDc-520.0-530.0.wav'
p1167
aS'eksLmCQK9-0-220.0-230.0.wav'
p1168
aS'fL4661jLS1E-190.0-200.0.wav'
p1169
aS'fl7puPDH2r4-30.0-40.0.wav'
p1170
aS'SHActtGU-Qw-30.0-40.0.wav'
p1171
aS'sHaLGB5ytVo-260.0-270.0.wav'
p1172
aS'ShAO3qxpHlA-380.0-390.0.wav'
p1173
aS'9EGMv8xIV6s-260.0-270.0.wav'
p1174
aS'h50xTlH20Ek-210.0-220.0.wav'
p1175
aS'SK-VxNnfK_U-30.0-40.0.wav'
p1176
aS'tnJeoacYmuk-430.0-440.0.wav'
p1177
aS'w4KOMivJ0TE-50.0-60.0.wav'
p1178
aS'hertuhMf7OA-0.0-10.0.wav'
p1179
aS'IVRq3GzIin0-460.0-470.0.wav'
p1180
aS'SeKDxF7dXcI-270.0-280.0.wav'
p1181
aS'SEL3zZxucD8-30.0-40.0.wav'
p1182
aS'VdKvXnsy48o-360.0-370.0.wav'
p1183
aS'1kCe1EDY4n8-280.0-290.0.wav'
p1184
aS'c6m5ME0ldvc-20.0-30.0.wav'
p1185
aS'gJ1QeotdV7E-320.0-330.0.wav'
p1186
aS'Q0e-3_xH6dw-1.0-11.0.wav'
p1187
aS'Q0eTNw1ndB4-0.0-10.0.wav'
p1188
aS'TvjcaH2tVIs-0.0-10.0.wav'
p1189
aS'XybpT44l_YM-40.0-50.0.wav'
p1190
aS'Lvle9El2X2U-200.0-210.0.wav'
p1191
aS'qcpSWzZ9cfY-0.0-10.0.wav'
p1192
aS'qo9N6-tbDX8-0.0-10.0.wav'
p1193
aS'4MQby5KyaYg-540.0-550.0.wav'
p1194
aS'acC7wmboCWQ-20.0-30.0.wav'
p1195
aS'dIFjiDi4Vis-0.0-10.0.wav'
p1196
aS'eFBKatO2e3Q-30.0-40.0.wav'
p1197
aS'_Go3w0f0BJQ-150.0-160.0.wav'
p1198
aS'b7gMrQu_Gls-20.0-30.0.wav'
p1199
aS'dkGl61iRoIg-300.0-310.0.wav'
p1200
aS'KdNBrdq1pDE-0.0-10.0.wav'
p1201
aS'KeMC6bv15fk-110.0-120.0.wav'
p1202
aS'yS9EN-dW52w-0.0-10.0.wav'
p1203
aS'-yOS4BHAbwA-230.0-240.0.wav'
p1204
aS'2sAff5WS740-0.0-10.0.wav'
p1205
aS'63Rj59PhAHY-80.0-90.0.wav'
p1206
aS'E-53KlmdYeg-10.0-20.0.wav'
p1207
aS'KEENYMDCzmw-30.0-40.0.wav'
p1208
aS'rBXKLBLrjZw-160.0-170.0.wav'
p1209
aS'U7_QEFVKVdw-24.0-34.0.wav'
p1210
aS'RV_Klc5aRPY-200.0-210.0.wav'
p1211
aS'0zdv9VocpgA-0.0-10.0.wav'
p1212
aS'd0XIwvQ6Be4-210.0-220.0.wav'
p1213
aS'L4rR37p6T5k-100.0-110.0.wav'
p1214
aS'V5rlmghFxpo-30.0-40.0.wav'
p1215
aS'W3jbL9zKbcs-400.0-410.0.wav'
p1216
aS'w3NAY0Lw9zo-30.0-40.0.wav'
p1217
aS'xkHpOP1nato-0.0-10.0.wav'
p1218
aS'YEIUzKB1FN4-30.0-40.0.wav'
p1219
aS'fjbr47PlF7k-450.0-460.0.wav'
p1220
aS'pxBSJdi2E1U-400.0-410.0.wav'
p1221
aS'xAMRSCU_Qlc-440.0-450.0.wav'
p1222
aS'-SG-pxdszAY-0.0-10.0.wav'
p1223
aS'8AcUD1TCbNg-100.0-110.0.wav'
p1224
aS'dzuC_h1aEhA-0.0-10.0.wav'
p1225
aS'FhKSjzwdsdA-370.0-380.0.wav'
p1226
aS'gE4_LbGBUIg-30.0-40.0.wav'
p1227
aS'VO3nzQaYJAg-20.0-30.0.wav'
p1228
aS'jANAyZ9GNOg-210.0-220.0.wav'
p1229
aS'PBsDPfpgNXU-50.0-60.0.wav'
p1230
aS'pQC7baztNII-0.0-10.0.wav'
p1231
aS'7ULSx8DPCnc-10.0-20.0.wav'
p1232
aS'bBMVejjuSjk-400.0-410.0.wav'
p1233
aS'dXuGBxjFnU8-90.0-100.0.wav'
p1234
aS'Xvj6dYFjoQI-70.0-80.0.wav'
p1235
aS'nDiNplZyAFc-50.0-60.0.wav'
p1236
aS'x1V6TI_LVT0-30.0-40.0.wav'
p1237
aS'A1l6evkVQnA-80.0-90.0.wav'
p1238
aS'EzKZwCpeJ5c-21.0-31.0.wav'
p1239
aS'eZLwyYHUfHM-330.0-340.0.wav'
p1240
aS'g-aZGyW8ahA-0.0-10.0.wav'
p1241
aS'F_C8lHYvZbI-0.0-10.0.wav'
p1242
aS'gdnjyxpMgUA-70.0-80.0.wav'
p1243
aS'h1XLbz6y7IQ-30.0-40.0.wav'
p1244
aS'iO57B0vrDJU-0.0-10.0.wav'
p1245
aS'tEpfU9J-hLM-0.0-10.0.wav'
p1246
aS'ba5aqAcK02w-280.0-290.0.wav'
p1247
aS'HMUfqjD356A-30.0-40.0.wav'
p1248
aS'jQUC3eji_r8-350.0-360.0.wav'
p1249
aS'jqvASDfQVH0-30.0-40.0.wav'
p1250
aS'OURIojq2QxU-60.0-70.0.wav'
p1251
aS'FV4J8inFEr0-440.0-450.0.wav'
p1252
aS'gjiwPVq4Uhg-10.0-20.0.wav'
p1253
aS'jUCo9gYREaY-0.0-10.0.wav'
p1254
aS'jyVyyNjeOwU-30.0-40.0.wav'
p1255
aS'VT0EDFxC0JY-30.0-40.0.wav'
p1256
aS'YtwxY3BJoas-0.0-10.0.wav'
p1257
aS'D5BVYj7AOSE-30.0-40.0.wav'
p1258
aS's4TtJ_06q7w-0.0-10.0.wav'
p1259
aS'-YHjKxdA84c-530.0-540.0.wav'
p1260
aS'0GBVaUPTTSw-0.0-10.0.wav'
p1261
aS'8lWfuD6oF8w-30.0-40.0.wav'
p1262
aS'9ZTuDtZg14g-130.0-140.0.wav'
p1263
aS'dpRi8Ifq55I-30.0-40.0.wav'
p1264
aS'GNhCzuK8aCo-160.0-170.0.wav'
p1265
aS'ghcCD8rktdc-380.0-390.0.wav'
p1266
aS'kChIdMnvBU8-0.0-10.0.wav'
p1267
aS'Kcigj0Zf6BU-300.0-310.0.wav'
p1268
aS'v41grKkDekY-120.0-130.0.wav'
p1269
aS'xatUUcGhR5w-10.0-20.0.wav'
p1270
aS'-em4duQWMSo-30.0-40.0.wav'
p1271
aS'1926o9NF9ss-580.0-590.0.wav'
p1272
aS'7M2150qTTEs-10.0-20.0.wav'
p1273
aS'aaRhXQMPxAA-130.0-140.0.wav'
p1274
aS'HxgqTWwCgXI-10.0-20.0.wav'
p1275
aS'U8jvytt-zcA-210.0-220.0.wav'
p1276
aS'UkZfCuOg6Bg-20.0-30.0.wav'
p1277
aS'UTfBsibma0A-30.0-40.0.wav'
p1278
aS'vmYsEtZnR_4-130.0-140.0.wav'
p1279
aS'ZHMZbKf7UJM-50.0-60.0.wav'
p1280
aS'bFPE94AQ8nM-450.0-460.0.wav'
p1281
aS'stELrFxBN1M-10.0-20.0.wav'
p1282
aS'steYpYJcPJg-0.0-10.0.wav'
p1283
aS'nvebzJUDccw-30.0-40.0.wav'
p1284
aS'ZqZMVnJYPT8-70.0-80.0.wav'
p1285
aS'-MqSlhqJOoQ-50.0-60.0.wav'
p1286
aS'g8yC0wN8120-110.0-120.0.wav'
p1287
aS'g93anqeDq1Q-110.0-120.0.wav'
p1288
aS'QTL1GQa35pE-0.0-10.0.wav'
p1289
aS'aaV75nbDwys-0.0-10.0.wav'
p1290
aS'Im5lMC7Ej4c-30.0-40.0.wav'
p1291
aS'Yv9r6M2Hckg-310.0-320.0.wav'
p1292
aS'gHScgSf0HEQ-480.0-490.0.wav'
p1293
aS'gOgTtHBqHGU-30.0-40.0.wav'
p1294
aS'rK0mnPt1hRU-0.0-10.0.wav'
p1295
aS'iJDF9vTHf2Q-190.0-200.0.wav'
p1296
aS'xhHmCtRh5jw-0.0-10.0.wav'
p1297
aS'XToPDGTGY9w-0.0-10.0.wav'
p1298
aS'iVHAb3JYfTI-190.0-200.0.wav'
p1299
aS'IVJ-rjhxYB4-290.0-300.0.wav'
p1300
aS'K2fK3y79IvA-140.0-150.0.wav'
p1301
aS'K2K_57AyGFE-30.0-40.0.wav'
p1302
aS'PcYbQCNj3Tw-0.0-10.0.wav'
p1303
aS'q7Jv1raYrBQ-20.0-30.0.wav'
p1304
aS't2vFwDX41dY-10.0-20.0.wav'
p1305
aS'TVtx3EIZiMw-0.0-10.0.wav'
p1306
aS'xWNqzyH0nc4-0.0-10.0.wav'
p1307
aS'Es44QTJmuZ0-20.0-30.0.wav'
p1308
aS'qkGiu_Wz4ZE-60.0-70.0.wav'
p1309
aS'8nEvAKJEqwU-190.0-200.0.wav'
p1310
aS'Ow6kAlY-Ac4-40.0-50.0.wav'
p1311
aS'RFsMCsxAoc4-190.0-200.0.wav'
p1312
aS'ziPTIACZoJU-0.0-10.0.wav'
p1313
aS'Mpe63t3wLvA-150.0-160.0.wav'
p1314
aS'R_sV71aQk28-430.0-440.0.wav'
p1315
aS'XhrBIevmaRU-120.0-130.0.wav'
p1316
aS'zOiWaezh1tY-6.0-16.0.wav'
p1317
aS'zoIWbxOoK7E-130.0-140.0.wav'
p1318
aS'HdlMoFK_jeE-30.0-40.0.wav'
p1319
aS'is6DNxTUz08-170.0-180.0.wav'
p1320
aS'PuUYHjgJOX8-490.0-500.0.wav'
p1321
aS'T1Y-ssK7db0-360.0-370.0.wav'
p1322
aS'za36krXN7EQ-410.0-420.0.wav'
p1323
aS'zA7DpSga5Fw-30.0-40.0.wav'
p1324
aS'2bFLLNvd1Bg-290.0-300.0.wav'
p1325
aS'jgXtUtTk9T0-190.0-200.0.wav'
p1326
aS'UtLUykFHd4o-160.0-170.0.wav'
p1327
aS'y2cbS6227ms-90.0-100.0.wav'
p1328
aS'26eGq0YWOow-0.0-10.0.wav'
p1329
aS'D-5pz3fYA8w-30.0-40.0.wav'
p1330
aS'WrO5-WxxJC0-470.0-480.0.wav'
p1331
aS'FtEOty8FeWQ-30.0-40.0.wav'
p1332
aS'M4cmIdcsf38-0.0-10.0.wav'
p1333
aS'1zjYz4Rk-3A-0.0-10.0.wav'
p1334
aS'BzoYUM4-rh4-590.0-600.0.wav'
p1335
aS'PMdVVeSw704-410.0-420.0.wav'
p1336
aS'Sx729luMWqw-260.0-270.0.wav'
p1337
aS'tuzgaAzbwVA-280.0-290.0.wav'
p1338
aS'vD_8Cys_4lk-320.0-330.0.wav'
p1339
aS'tF7wIRdxdwE-460.0-470.0.wav'
p1340
aS'5OK_78F7BIc-40.0-50.0.wav'
p1341
aS'6LzvnztgDNQ-280.0-290.0.wav'
p1342
aS'7CZEN5UuTXw-50.0-60.0.wav'
p1343
aS'GF6S59bhQp4-20.0-30.0.wav'
p1344
aS'rfGkHQq3zGc-470.0-480.0.wav'
p1345
aS'vHURkaXQvd0-340.0-350.0.wav'
p1346
aS'vxGSEmb51HU-150.0-160.0.wav'
p1347
aS'dZggDrf21dk-30.0-40.0.wav'
p1348
aS'dZi5Tcva9Xs-30.0-40.0.wav'
p1349
aS'DzJ-Kj_Fn8E-510.0-520.0.wav'
p1350
aS'TsieediGWU8-30.0-40.0.wav'
p1351
aS'vWSoepcOsUA-280.0-290.0.wav'
p1352
aS'Q8jzvg60Xwg-40.0-50.0.wav'
p1353
aS'qNlq_g-iNLU-120.0-130.0.wav'
p1354
aS'SpR0oB5L-ug-0.0-10.0.wav'
p1355
aS'SptCUIuqKKE-110.0-120.0.wav'
p1356
aS'p9vye5UsBOw-240.0-250.0.wav'
p1357
aS'SwAfe7NjhCc-360.0-370.0.wav'
p1358
aS'SwdPD1R1HCQ-490.0-500.0.wav'
p1359
aS'0SW92lwK8fI-17.0-27.0.wav'
p1360
aS'qb6obms4geI-40.0-50.0.wav'
p1361
aS'Qb6RUons5ks-440.0-450.0.wav'
p1362
aS'q3Dt6kI-ajA-20.0-30.0.wav'
p1363
aS'VJHkGDMkOCw-80.0-90.0.wav'
p1364
aS'f1NJ6SfExvE-50.0-60.0.wav'
p1365
aS'xuo5qUNmSkk-200.0-210.0.wav'
p1366
aS'XuorpXeBU90-0.0-10.0.wav'
p1367
aS'S3NYZz8TDxY-0.0-10.0.wav'
p1368
aS'-ayiPNqVg8A-30.0-40.0.wav'
p1369
aS'6PSyznm3ON4-460.0-470.0.wav'
p1370
aS's6JCmgV4orc-30.0-40.0.wav'
p1371
aS'Ta_WyQEik_M-30.0-40.0.wav'
p1372
aS'vIj40PMeon8-10.0-20.0.wav'
p1373
aS'eIBPLbS_DAU-260.0-270.0.wav'
p1374
aS'N7w_6n7X7rs-30.0-40.0.wav'
p1375
aS'1TRR8MWn4gE-10.0-20.0.wav'
p1376
aS'2WmWiV0rlaw-570.0-580.0.wav'
p1377
aS'4cSdCeVjWW0-10.0-20.0.wav'
p1378
aS'4fzhCekpE6k-520.0-530.0.wav'
p1379
aS'6GhS2PF7Ep8-40.0-50.0.wav'
p1380
aS'RBoTxNnBymE-310.0-320.0.wav'
p1381
aS'XpJIC2EcHTQ-0.0-10.0.wav'
p1382
aS'ysoY9u2JFqo-0.0-10.0.wav'
p1383
aS'LpwTvq48mAI-290.0-300.0.wav'
p1384
aS'PQm-D3CpzT0-370.0-380.0.wav'
p1385
aS'SQwMb_2O1L4-210.0-220.0.wav'
p1386
aS'UE2N0U0nmYU-0.0-10.0.wav'
p1387
aS'Vf9mmCEQ3lc-550.0-560.0.wav'
p1388
aS'vfANu3PkEz4-12.0-22.0.wav'
p1389
aS'vFdfoe3p2Tc-560.0-570.0.wav'
p1390
aS'Wv7b77LWj38-180.0-190.0.wav'
p1391
aS'RXcaSUpeHNE-0.0-10.0.wav'
p1392
aS'98kQwKsB97E-160.0-170.0.wav'
p1393
aS'ZmNpyNSpP2A-10.0-20.0.wav'
p1394
aS'I2z1hpf7HkE-40.0-50.0.wav'
p1395
aS'2bL2VS9WuuA-470.0-480.0.wav'
p1396
aS'9QtyDww3mBY-440.0-450.0.wav'
p1397
aS'ANI_yFtDhzM-0.0-10.0.wav'
p1398
aS'f8OcItMujJg-10.0-20.0.wav'
p1399
aS'kMnYCKyljgA-30.0-40.0.wav'
p1400
aS'DLxClP4xnfI-30.0-40.0.wav'
p1401
aS'DTWzN5f3wV4-0.0-10.0.wav'
p1402
aS'hAHoLKnuB0c-220.0-230.0.wav'
p1403
aS'haIn6Qdkr28-0.0-10.0.wav'
p1404
aS'Ipk5tsb3l9I-140.0-150.0.wav'
p1405
aS'jjq8fXTFnV0-15.0-25.0.wav'
p1406
aS'nGtKkmVO5kw-170.0-180.0.wav'
p1407
aS'APMlRySV7GI-28.0-38.0.wav'
p1408
aS'BfJ7XCZLydI-70.0-80.0.wav'
p1409
aS'eSFvaca1MN0-0.0-10.0.wav'
p1410
aS'gOYpAZedlDc-40.0-50.0.wav'
p1411
aS'iCzmlzfbO-g-12.0-22.0.wav'
p1412
aS'x77NAnmFZbc-460.0-470.0.wav'
p1413
aS'x_-MdxBCOH8-30.0-40.0.wav'
p1414
aS'X_4g5dJT07o-410.0-420.0.wav'
p1415
aS'XkObuEI8C1w-10.0-20.0.wav'
p1416
aS'XkODgsPJzPY-10.0-20.0.wav'
p1417
aS'_WXHXdQ0ko8-120.0-130.0.wav'
p1418
aS'dheU181Zaf8-0.0-10.0.wav'
p1419
aS'dHFFmMi_pOA-30.0-40.0.wav'
p1420
aS'FmtB6WXYrUg-0.0-10.0.wav'
p1421
aS'fmTPtEjJjtI-310.0-320.0.wav'
p1422
aS'MF5O3UMRSz4-390.0-400.0.wav'
p1423
aS'-mN-N26RYLE-210.0-220.0.wav'
p1424
aS'8cgYL0sHyNA-400.0-410.0.wav'
p1425
aS'm5dj14eAbiw-10.0-20.0.wav'
p1426
aS'T-lCAJmBJGI-40.0-50.0.wav'
p1427
aS'u0skUWSEotk-0.0-10.0.wav'
p1428
aS'UHbKvF9Khpg-40.0-50.0.wav'
p1429
aS'-QNnqpm9q-g-240.0-250.0.wav'
p1430
aS'0J_4raGvC60-390.0-400.0.wav'
p1431
aS'4Okj0tpqU3s-120.0-130.0.wav'
p1432
aS'uZegNu2Rp_s-40.0-50.0.wav'
p1433
aS'bDkn_UM8DwQ-210.0-220.0.wav'
p1434
aS'tlsRescjHNc-0.0-10.0.wav'
p1435
aS'U8YNvG9DN0k-0.0-10.0.wav'
p1436
aS'GXd7E4YTQ_Q-0.0-10.0.wav'
p1437
aS'PsobIDk11J4-270.0-280.0.wav'
p1438
aS'rxxxzC-bgCs-0.0-10.0.wav'
p1439
aS'Upc4fIGNmOU-50.0-60.0.wav'
p1440
aS'uPCwZcA6yeA-70.0-80.0.wav'
p1441
aS'eLBKlfIfkeg-120.0-130.0.wav'
p1442
aS'iLS77wPlZCc-0.0-10.0.wav'
p1443
aS'jG5Q1Q_WbkI-0.0-10.0.wav'
p1444
aS'lTbFbdVcxH8-360.0-370.0.wav'
p1445
aS'lzwpPVrw_5U-30.0-40.0.wav'
p1446
aS'8b4ScEQOpHU-30.0-40.0.wav'
p1447
aS'8bBcEz-_er8-30.0-40.0.wav'
p1448
aS'dFaJ6Ut_abg-60.0-70.0.wav'
p1449
aS'JfcGeW8r9rw-300.0-310.0.wav'
p1450
aS'QoqAcSZopbY-430.0-440.0.wav'
p1451
aS'R8Xs0_YJB2k-160.0-170.0.wav'
p1452
aS'qvrEWs9vvMs-450.0-460.0.wav'
p1453
aS'u7ojVSZNUrM-220.0-230.0.wav'
p1454
aS'VrIPbHSb8bM-30.0-40.0.wav'
p1455
aS'Ydr44KZ9aQw-30.0-40.0.wav'
p1456
aS'YdSi1oD1uf4-190.0-200.0.wav'
p1457
aS'bR2A6kkvE3w-0.0-10.0.wav'
p1458
aS'ckTEM-GrSQk-150.0-160.0.wav'
p1459
aS'PzPu2KY_Fjk-340.0-350.0.wav'
p1460
aS'-2NVPmjojzE-190.0-200.0.wav'
p1461
aS'0lORaLmjmEs-370.0-380.0.wav'
p1462
aS'cnuzhig8dD4-0.0-10.0.wav'
p1463
aS'IYKpXzhOzqg-30.0-40.0.wav'
p1464
aS'_q5Hs8CGtz8-0.0-10.0.wav'
p1465
aS'p9kUUo2LgY0-530.0-540.0.wav'
p1466
aS'WlsOBnI1mBM-28.0-38.0.wav'
p1467
aS'xb2FhAz2q6U-0.0-10.0.wav'
p1468
aS'yhynf7Muxg0-20.0-30.0.wav'
p1469
aS'Tp14KLJ5uLk-150.0-160.0.wav'
p1470
aS'5tTNzcXwrFg-260.0-270.0.wav'
p1471
aS'JMS20zK90hI-0.0-8.0.wav'
p1472
aS'U_qOQ9UYhT0-500.0-510.0.wav'
p1473
aS'ukpt4IvVlw0-30.0-40.0.wav'
p1474
aS'FcKlEUQRxHk-0.0-10.0.wav'
p1475
aS'oXCM3ck-Hgk-30.0-40.0.wav'
p1476
aS'Q1I5uamxVRY-220.0-230.0.wav'
p1477
aS'yW-sT29Catk-70.0-80.0.wav'
p1478
aS'17SPVVa-wiw-0.0-10.0.wav'
p1479
aS'6jUCxtWNZSU-60.0-70.0.wav'
p1480
aS'QaRVHu56K6w-190.0-200.0.wav'
p1481
aS'qaRvUeSdrL4-340.0-350.0.wav'
p1482
aS'TTr5uMAnPkY-30.0-40.0.wav'
p1483
aS'W5v_Rx-1ED8-30.0-40.0.wav'
p1484
aS'fVw6xGdaPPA-240.0-250.0.wav'
p1485
aS'iw9r3NOZJeI-350.0-360.0.wav'
p1486
aS'OgXIvohu04k-170.0-180.0.wav'
p1487
aS'LDJYxrLJnIM-0.0-10.0.wav'
p1488
aS'HqZeky1S7NA-15.0-25.0.wav'
p1489
aS'JOpENBq-sFo-30.0-40.0.wav'
p1490
aS'Ew22db1JA_4-50.0-60.0.wav'
p1491
aS'l0kQlJuz28U-30.0-40.0.wav'
p1492
aS'VN6HN8Q3YTw-50.0-60.0.wav'
p1493
aS'yAZo1-Kge9M-30.0-40.0.wav'
p1494
aS'd3Gr4XtosHU-460.0-470.0.wav'
p1495
aS'dNg-yAXRZQk-210.0-220.0.wav'
p1496
aS'-fDAkLvOuww-30.0-40.0.wav'
p1497
aS'dYeIvlfpHVE-30.0-40.0.wav'
p1498
aS'FNL5vNsnlE0-15.0-25.0.wav'
p1499
aS'fnlAOt9KUOQ-30.0-40.0.wav'
p1500
aS's1eNjUgaB-g-0.0-10.0.wav'
p1501
aS't0q8uoNPRxc-30.0-40.0.wav'
p1502
aS'bE9PeviD0Oo-0.0-10.0.wav'
p1503
aS'im7QgTSm_VY-22.0-32.0.wav'
p1504
aS'MSk3bTCxZ0U-230.0-240.0.wav'
p1505
aS'MBkAT2APyyM-80.0-90.0.wav'
p1506
aS'MHv8jx0aDtQ-20.0-30.0.wav'
p1507
aS'MQH5VqePzaM-200.0-210.0.wav'
p1508
aS'M_LvWtOLjzY-60.0-70.0.wav'
p1509
aS'NC0eDF5Vmak-30.0-40.0.wav'
p1510
aS'NIPTfY98eDA-70.0-80.0.wav'
p1511
aS'nKBrMQAa7wY-370.0-380.0.wav'
p1512
aS'NN0A9c0Qs9M-5.0-15.0.wav'
p1513
aS'NriB5zt0oAI-30.0-40.0.wav'
p1514
aS'nyuruu3oagw-0.0-8.0.wav'
p1515
aS'Od34LzuRdXk-30.0-40.0.wav'
p1516
aS'ofs5f0R6PrY-0.0-10.0.wav'
p1517
aS'LOwM68wyKsI-400.0-410.0.wav'
p1518
aS'LSg0_w1GKTM-80.0-90.0.wav'
p1519
aS'lYPo6RGlx7Q-60.0-70.0.wav'
p1520
aS'm0M_TzyIkg0-250.0-260.0.wav'
p1521
aS'M8eizY8RkgQ-30.0-40.0.wav'
p1522
aS'MA_fNJ8gCz8-0.0-10.0.wav'
p1523
aS'MdAI1rE1k-Y-200.0-210.0.wav'
p1524
aS'mesD1himD10-260.0-270.0.wav'
p1525
aS'MFq1w6x0tCU-460.0-470.0.wav'
p1526
aS'mhsOenoMjK4-470.0-480.0.wav'
p1527
aS'mJT1Tm_2Gqs-20.0-30.0.wav'
p1528
aS'MKoJCMgHm2E-170.0-180.0.wav'
p1529
aS'ml56R8cTGjM-460.0-470.0.wav'
p1530
aS'mEI_NJq7XTI-40.0-50.0.wav'
p1531
aS'lslTNbTZQbg-0.0-10.0.wav'
p1532
aS'MfMoeK6UVB0-0.0-10.0.wav'
p1533
aS'MmbRgWs_KLY-10.0-20.0.wav'
p1534
aS'ModjCYhcg7M-6.0-16.0.wav'
p1535
aS'MUnTryhn8oA-120.0-130.0.wav'
p1536
aS'MvITAQznaMs-30.0-40.0.wav'
p1537
aS'mvjM4f8DyuY-200.0-210.0.wav'
p1538
aS'munJdkbBFCI-20.0-30.0.wav'
p1539
aS'mZ7QXM0nSBk-220.0-230.0.wav'
p1540
aS'N0xWhf-kVMc-20.0-30.0.wav'
p1541
aS'N2UnYy2kdnk-0.0-10.0.wav'
p1542
aS'n43-OKz8QDg-70.0-80.0.wav'
p1543
aS'n51wGAlZlIs-170.0-180.0.wav'
p1544
aS'n2CX56CXAd0-30.0-40.0.wav'
p1545
aS'naWOdG73m4s-550.0-560.0.wav'
p1546
aS'nawu6idvyT0-30.0-40.0.wav'
p1547
aS'nEkG4Gfzk5k-10.0-20.0.wav'
p1548
aS'Nf3348QuRt4-440.0-450.0.wav'
p1549
aS'NFxWEK8ert8-150.0-160.0.wav'
p1550
aS'NfyVd4Ww3gI-10.0-20.0.wav'
p1551
aS'nGkqEQnZ8dc-470.0-480.0.wav'
p1552
aS'nhXJ2cFsrAE-270.0-280.0.wav'
p1553
aS'NiUDuQssNWs-130.0-140.0.wav'
p1554
aS'niyKFDhLbs0-270.0-280.0.wav'
p1555
aS'NjZ3ANyJehk-200.0-210.0.wav'
p1556
aS'NKlxA5SYqxA-410.0-420.0.wav'
p1557
aS'NMQtOX2fTgI-130.0-140.0.wav'
p1558
aS'nPIvdOyV5uk-60.0-70.0.wav'
p1559
aS'NSAA1mfyY7g-60.0-70.0.wav'
p1560
aS'NsGe1kq4nNU-30.0-40.0.wav'
p1561
aS'NShffqspqZc-30.0-40.0.wav'
p1562
aS'nuif9tu1ze8-140.0-150.0.wav'
p1563
aS'nVq-Fex846k-250.0-260.0.wav'
p1564
aS'NWg7DG1pjZk-30.0-40.0.wav'
p1565
aS'o0LcxyqRnY4-390.0-400.0.wav'
p1566
aS'Nz8S0t2Ep30-10.0-20.0.wav'
p1567
aS'NZrZXlMSVsI-30.0-40.0.wav'
p1568
aS'nzUUScv9320-60.0-70.0.wav'
p1569
aS'O5k3hjp07Gs-410.0-420.0.wav'
p1570
aS'o6fUulEflgU-60.0-70.0.wav'
p1571
aS'O18eDy9oNrY-0.0-10.0.wav'
p1572
aS'OaU87MsYWHM-22.0-32.0.wav'
p1573
aS'oBalQQVNVuM-70.0-80.0.wav'
p1574
aS'oEDKobNkkvA-330.0-340.0.wav'
p1575
aS'OEsrWNeaI5A-40.0-50.0.wav'
p1576
aS'OHEzD7uP6hI-160.0-170.0.wav'
p1577
aS'OHvVR4Hbqr4-230.0-240.0.wav'
p1578
aS'OKW0fsOI-es-300.0-310.0.wav'
p1579
aS'oManNsBoVH0-130.0-140.0.wav'
p1580
aS'oq9zippiIHk-190.0-200.0.wav'
p1581
aS'OQf2qJ2keTk-110.0-120.0.wav'
p1582
aS'OQLocSF-Ofo-120.0-130.0.wav'
p1583
aS'OrA1-E-uulo-0.0-10.0.wav'
p1584
aS'oRIq3-9H1jY-460.0-470.0.wav'
p1585
aS'orjEj2RvuZo-40.0-50.0.wav'
p1586
aS'orJNXTIYKto-0.0-10.0.wav'
p1587
aS'OwqHczzQk-Q-24.0-34.0.wav'
p1588
aS'ozQaSIOaMUw-0.0-10.0.wav'
p1589
a.