(lp0
S'YTzQ5q9uvz0-60.0-70.0.wav'
p1
aS'9T06RhBVpfo-18.0-28.0.wav'
p2
aS'Vfu_eQ62peY-430.0-440.0.wav'
p3
aS'hm_xRQjXa0c-22.0-32.0.wav'
p4
aS'0KnhXVCuM4M-240.0-250.0.wav'
p5
aS'YCQZzD3SdwU-370.0-380.0.wav'
p6
aS'Q6OsnMVnphM-16.0-26.0.wav'
p7
aS'DH7QnCI7BF8-30.0-40.0.wav'
p8
aS'6skuPjRN8MA-280.0-290.0.wav'
p9
aS'RhSLUvQ_LuM-30.0-40.0.wav'
p10
aS'Eg4aROfw28c-60.0-70.0.wav'
p11
aS'3aVlm16wySo-60.0-70.0.wav'
p12
aS'OHl3bcPeD0M-70.0-80.0.wav'
p13
aS'TJ2J8m0aGX4-560.0-570.0.wav'
p14
aS'jz3Uo5bu8bE-240.0-250.0.wav'
p15
aS'Yvv-lrAjBDM-60.0-70.0.wav'
p16
aS'bJe7s2NCB-c-110.0-120.0.wav'
p17
aS'FMye9IP_LAM-10.0-20.0.wav'
p18
aS'C748ohUmA0c-50.0-60.0.wav'
p19
aS'MSM1WhkeLcQ-30.0-40.0.wav'
p20
aS'mgDlu4V-7vs-60.0-70.0.wav'
p21
a.