(lp0
S'5oI5ApQdgn8-120.0-130.0.wav'
p1
aS'Nas225R6ok0-30.0-40.0.wav'
p2
aS'xKM2R-Qx4MM-50.0-60.0.wav'
p3
aS'xox5H-BlSrI-10.0-20.0.wav'
p4
aS'6gRQeX_TPqY-20.0-30.0.wav'
p5
aS'bsHTiVZS_QY-30.0-40.0.wav'
p6
aS'fQOP6IPu-tw-30.0-40.0.wav'
p7
aS'gL_TqLRrFgc-190.0-200.0.wav'
p8
aS'7mnsFSHYvvg-27.0-37.0.wav'
p9
aS'MWfh7FF4TKI-380.0-390.0.wav'
p10
aS'AaExZV45s4c-30.0-40.0.wav'
p11
aS'Tct_HXSBrDE-30.0-40.0.wav'
p12
aS'XhM5GtoCH5w-50.0-60.0.wav'
p13
aS'pXeXAE3a8AQ-9.0-19.0.wav'
p14
aS'eYGqi749dz0-410.0-420.0.wav'
p15
aS'0LxNf5ojt9c-30.0-40.0.wav'
p16
aS'kLZ2OStmJpE-40.0-50.0.wav'
p17
aS'TPDPyWNchKI-200.0-210.0.wav'
p18
aS'yq9nEQMqNIw-190.0-200.0.wav'
p19
aS'1_kJrHGt3G0-10.0-20.0.wav'
p20
aS'sgke-VL0gZ8-220.0-230.0.wav'
p21
aS'0s_5U4BE-PA-30.0-40.0.wav'
p22
aS'0VmJ442Cw5E-30.0-40.0.wav'
p23
aS'GCRpCEYx-3g-10.0-20.0.wav'
p24
aS'vo7p_JG1Kco-30.0-40.0.wav'
p25
aS'VcosO3RYvHE-0.0-10.0.wav'
p26
aS'0yjQMoilQGg-130.0-140.0.wav'
p27
aS'-Xws54nsdFg-20.0-30.0.wav'
p28
aS'UYnKrutSF0A-70.0-80.0.wav'
p29
aS'VqvBtQpkqs4-220.0-230.0.wav'
p30
aS'N5cV2qnt5wE-90.0-100.0.wav'
p31
aS'FL2Bi5gyoUg-60.0-70.0.wav'
p32
aS'TCWeHcMtdAI-30.0-40.0.wav'
p33
aS'hkSKcfKkDFo-230.0-240.0.wav'
p34
aS'NskqLgTcN68-110.0-120.0.wav'
p35
aS'PDQGBcFWZ6Y-100.0-110.0.wav'
p36
aS'x9t8t_cgAOk-30.0-40.0.wav'
p37
aS'gWM80eolshc-140.0-150.0.wav'
p38
aS'H-sQqaufYVs-30.0-40.0.wav'
p39
aS'AiDXzwzZ61E-30.0-40.0.wav'
p40
aS'aRd-ylacEds-130.0-140.0.wav'
p41
aS'zp2LEnYX2GU-190.0-200.0.wav'
p42
aS'6YkUhehkizo-30.0-40.0.wav'
p43
aS'Lm9I3vJi9TM-130.0-140.0.wav'
p44
aS'Gy2i1dfALVU-140.0-150.0.wav'
p45
aS'KBWQOK7O1gM-20.0-30.0.wav'
p46
aS'RJKIW3iIFio-290.0-300.0.wav'
p47
aS'bm3XSymODXg-180.0-190.0.wav'
p48
aS'6xRj56-pcPE-60.0-70.0.wav'
p49
aS'EIIIu-W9c9I-30.0-40.0.wav'
p50
aS'3Zqfa5DXLnI-30.0-40.0.wav'
p51
aS'Kq_3NCJ4cF0-30.0-40.0.wav'
p52
aS'd744Aq2AqvA-280.0-290.0.wav'
p53
aS'-Sb_8qQEjmg-120.0-130.0.wav'
p54
aS'O_nMKwKvh3w-30.0-40.0.wav'
p55
aS'XtuSwE-mefI-0.0-10.0.wav'
p56
aS'C4BKp2Z_-pE-30.0-40.0.wav'
p57
aS'TAZykA0JGIY-200.0-210.0.wav'
p58
aS'0YkfItywJ0c-30.0-40.0.wav'
p59
aS'kqEnr5P-oyM-20.0-30.0.wav'
p60
aS'Eik110jx77Q-110.0-120.0.wav'
p61
aS'dHzN9ml38eM-130.0-140.0.wav'
p62
aS'AmY_0PlCbAU-90.0-100.0.wav'
p63
aS'LfNdGBlf38M-470.0-480.0.wav'
p64
aS'h6VUcVnzJsE-20.0-30.0.wav'
p65
aS'-B8ZLJSiDa0-0.0-10.0.wav'
p66
aS'QJllNU-6SzI-30.0-40.0.wav'
p67
aS'67kZ67bTRlA-100.0-110.0.wav'
p68
aS'30-jnGFXVZk-30.0-40.0.wav'
p69
aS'3ZoKmrsP7i4-210.0-220.0.wav'
p70
aS'-BavAxXARG4-500.0-510.0.wav'
p71
aS'xBESLBX0G_Y-60.0-70.0.wav'
p72
aS'3oup9isoEbw-320.0-330.0.wav'
p73
aS'1KSmkZxRopc-30.0-40.0.wav'
p74
aS'eitUo-7DsdY-190.0-200.0.wav'
p75
aS'050nJb7x1dA-30.0-40.0.wav'
p76
aS'cy7txfZbllU-170.0-180.0.wav'
p77
aS'AlPF2wXLGQA-14.0-24.0.wav'
p78
aS'vf2Cqnl7P1E-0.0-10.0.wav'
p79
aS'SrEr75VDhsk-30.0-40.0.wav'
p80
aS'tk_WqOVXp4w-30.0-40.0.wav'
p81
aS'yVs9rkfb7us-450.0-460.0.wav'
p82
aS'YUoH3qBESx0-50.0-60.0.wav'
p83
aS'L6suNsMg7zI-30.0-40.0.wav'
p84
aS'Q_RbNnpF44U-30.0-40.0.wav'
p85
aS'2998s6C9D_w-30.0-40.0.wav'
p86
aS'1Z1NKHQfJAc-30.0-40.0.wav'
p87
aS'JwsvGlujuYY-330.0-340.0.wav'
p88
aS'tUdP1FrHkVU-30.0-40.0.wav'
p89
aS'0n1_x9y7m3w-50.0-60.0.wav'
p90
aS'5kCNSD_r24I-30.0-40.0.wav'
p91
aS'qTXtOvGEzLM-250.0-260.0.wav'
p92
aS'-H8PWsf35Wo-50.0-60.0.wav'
p93
aS'2S0DpftWhi8-240.0-250.0.wav'
p94
aS'vB0SlCMPnAM-0.0-10.0.wav'
p95
aS'IccWRFGfPro-30.0-40.0.wav'
p96
aS'VK61mWZuiGc-0.0-10.0.wav'
p97
aS'TQ1rIOHcVEQ-30.0-40.0.wav'
p98
aS'pmDkOx5lMy8-110.0-120.0.wav'
p99
aS'Zp1X83d0YLg-390.0-400.0.wav'
p100
aS'uHa1kxWCyJ8-150.0-160.0.wav'
p101
aS'hrpaddHbP3o-30.0-40.0.wav'
p102
aS'7zW6FqHNED0-220.0-230.0.wav'
p103
aS'x4Tmf_4W6tA-30.0-40.0.wav'
p104
aS'SJkHuMDurx4-280.0-290.0.wav'
p105
aS'd9JOEm2o9Xw-20.0-30.0.wav'
p106
aS'2UtIx6YbRU4-30.0-40.0.wav'
p107
aS'TIgtCyjAT7s-0.0-10.0.wav'
p108
aS'2M64_qhKlgI-20.0-30.0.wav'
p109
aS'3KXCKQT4Cv4-30.0-40.0.wav'
p110
aS'GaPjdAw-7MY-26.0-36.0.wav'
p111
aS'l1jqcNbMzLQ-30.0-40.0.wav'
p112
aS'06nBYwH0zjQ-130.0-140.0.wav'
p113
aS'-BbO7aTFscE-30.0-40.0.wav'
p114
aS'3qeuasiq_wA-170.0-180.0.wav'
p115
aS'AQt61D49PV0-100.0-110.0.wav'
p116
aS'Lkn5DXdX1Ao-16.0-26.0.wav'
p117
aS'tQ26i67drbA-160.0-170.0.wav'
p118
aS'DW4bjFiubyU-30.0-40.0.wav'
p119
aS'4j6rGNv4bZM-50.0-60.0.wav'
p120
aS'02Lt2cC_NL4-20.0-30.0.wav'
p121
aS'wVX3D5mDQJA-160.0-170.0.wav'
p122
aS'5T591iblBu0-450.0-460.0.wav'
p123
aS'dMDFnIPhus0-120.0-130.0.wav'
p124
aS'JpwHoGB_RJ4-30.0-40.0.wav'
p125
aS'JagBebdiJOk-210.0-220.0.wav'
p126
aS'6LdKbTT0HJ0-30.0-40.0.wav'
p127
aS'qDlWkhyOJbw-190.0-200.0.wav'
p128
aS'POpN5DENydU-0.0-10.0.wav'
p129
aS'IPLYgmTGce8-0.0-10.0.wav'
p130
aS'RoVMF7NwNt4-260.0-270.0.wav'
p131
aS'GuFqIYMAkjs-80.0-90.0.wav'
p132
aS'6o8fga1F_rA-30.0-40.0.wav'
p133
aS'gCTCfu0hirM-190.0-200.0.wav'
p134
aS'3wmU7bHm-Zw-270.0-280.0.wav'
p135
aS'3SkFiLtqy2A-30.0-40.0.wav'
p136
aS'H4GXjpMgHFE-30.0-40.0.wav'
p137
aS'PZv7GztrWbU-140.0-150.0.wav'
p138
aS'Jo8il_Kg_j8-50.0-60.0.wav'
p139
aS'ufhyjVBL4Jw-70.0-80.0.wav'
p140
aS'-C92_qC8ln8-40.0-50.0.wav'
p141
aS'FR75sHtMFcE-7.0-17.0.wav'
p142
aS'IewCthVwVTo-240.0-250.0.wav'
p143
aS'JxZ3NItLHpE-540.0-550.0.wav'
p144
aS'xZCM2I_C8L8-30.0-40.0.wav'
p145
a.